ccopy_reg
_reconstructor
p0
(cpandas.core.frame
DataFrame
p1
c__builtin__
object
p2
Ntp3
Rp4
(dp5
S'_metadata'
p6
(lp7
sS'_typ'
p8
S'dataframe'
p9
sS'_data'
p10
g0
(cpandas.core.internals
BlockManager
p11
g2
Ntp12
Rp13
((lp14
cpandas.core.indexes.base
_new_Index
p15
(cpandas.core.indexes.base
Index
p16
(dp17
S'data'
p18
cnumpy.core.multiarray
_reconstruct
p19
(cnumpy
ndarray
p20
(I0
tp21
S'b'
p22
tp23
Rp24
(I1
(I4
tp25
cnumpy
dtype
p26
(S'O8'
p27
I0
I1
tp28
Rp29
(I3
S'|'
p30
NNNI-1
I-1
I63
tp31
bI00
(lp32
S'proc'
p33
aS'cat'
p34
aS'inputWSFile'
p35
aS'nominalDataName'
p36
atp37
bsS'name'
p38
Nstp39
Rp40
ag15
(cpandas.core.indexes.range
RangeIndex
p41
(dp42
S'start'
p43
I0
sS'step'
p44
I1
sS'stop'
p45
I1
sg38
Nstp46
Rp47
a(lp48
g19
(g20
(I0
tp49
g22
tp50
Rp51
(I1
(I4
I1
tp52
g29
I00
(lp53
S'THQ'
p54
aS'THQLeptonicTag'
p55
aS'/eos/user/p/prsaha/Tprime_analysis/FinalFit_inputs/v2/2016/M700/output_THQ_ctcvcp_HToGG_M125_Tprime700_13TeV-madgraph-pythia8_THQ.root'
p56
aS'thq_125_13TeV_THQLeptonicTag'
p57
atp58
ba(lp59
g15
(g16
(dp60
g18
g19
(g20
(I0
tp61
g22
tp62
Rp63
(I1
(I4
tp64
g29
I00
(lp65
g33
ag34
ag35
ag36
atp66
bsg38
Nstp67
Rp68
a(dp69
S'0.14.1'
p70
(dp71
S'axes'
p72
g14
sS'blocks'
p73
(lp74
(dp75
S'mgr_locs'
p76
c__builtin__
slice
p77
(I0
I4
I1
tp78
Rp79
sS'values'
p80
g51
sasstp81
bsb.