ccopy_reg
_reconstructor
p0
(cpandas.core.frame
DataFrame
p1
c__builtin__
object
p2
Ntp3
Rp4
(dp5
S'_metadata'
p6
(lp7
sS'_typ'
p8
S'dataframe'
p9
sS'_data'
p10
g0
(cpandas.core.internals
BlockManager
p11
g2
Ntp12
Rp13
((lp14
cpandas.core.indexes.base
_new_Index
p15
(cpandas.core.indexes.base
Index
p16
(dp17
S'data'
p18
cnumpy.core.multiarray
_reconstruct
p19
(cnumpy
ndarray
p20
(I0
tp21
S'b'
p22
tp23
Rp24
(I1
(I46
tp25
cnumpy
dtype
p26
(S'O8'
p27
I0
I1
tp28
Rp29
(I3
S'|'
p30
NNNI-1
I-1
I63
tp31
bI00
(lp32
S'year'
p33
aS'type'
p34
aS'procOriginal'
p35
aS'proc'
p36
aS'proc_s0'
p37
aS'cat'
p38
aS'inputWSFile'
p39
aS'nominalDataName'
p40
aS'modelWSFile'
p41
aS'model'
p42
aS'rate'
p43
aS'nominal_yield'
p44
aS'sumw2'
p45
aS'nominal_yield_COWCorr'
p46
aS'LooseMvaSF_up_yield'
p47
aS'LooseMvaSF_down_yield'
p48
aS'PreselSF_up_yield'
p49
aS'PreselSF_down_yield'
p50
aS'electronVetoSF_up_yield'
p51
aS'electronVetoSF_down_yield'
p52
aS'TriggerWeight_up_yield'
p53
aS'TriggerWeight_down_yield'
p54
aS'MuonIDWeight_up_yield'
p55
aS'MuonIDWeight_down_yield'
p56
aS'MuonIsoWeight_up_yield'
p57
aS'MuonIsoWeight_down_yield'
p58
aS'ElectronIDWeight_up_yield'
p59
aS'ElectronIDWeight_down_yield'
p60
aS'ElectronRecoWeight_up_yield'
p61
aS'ElectronRecoWeight_down_yield'
p62
aS'JetBTagReshapeWeight_up_yield'
p63
aS'JetBTagReshapeWeight_down_yield'
p64
aS'SigmaEOverEShift_up_yield'
p65
aS'SigmaEOverEShift_down_yield'
p66
aS'MvaShift_up_yield'
p67
aS'MvaShift_down_yield'
p68
aS'JEC_up_yield'
p69
aS'JEC_down_yield'
p70
aS'JER_up_yield'
p71
aS'JER_down_yield'
p72
aS'metJecUncertainty_up_yield'
p73
aS'metJecUncertainty_down_yield'
p74
aS'metPhoUncertainty_up_yield'
p75
aS'metPhoUncertainty_down_yield'
p76
aS'metUncUncertainty_up_yield'
p77
aS'metUncUncertainty_down_yield'
p78
atp79
bsS'name'
p80
Nstp81
Rp82
ag15
(cpandas.core.indexes.numeric
Int64Index
p83
(dp84
g18
g19
(g20
(I0
tp85
g22
tp86
Rp87
(I1
(I20
tp88
g26
(S'i8'
p89
I0
I1
tp90
Rp91
(I3
S'<'
p92
NNNI-1
I-1
I0
tp93
bI00
S'\x00\x00\x00\x00\x00\x00\x00\x00\x01\x00\x00\x00\x00\x00\x00\x00\x02\x00\x00\x00\x00\x00\x00\x00\x03\x00\x00\x00\x00\x00\x00\x00\x04\x00\x00\x00\x00\x00\x00\x00\x05\x00\x00\x00\x00\x00\x00\x00\x06\x00\x00\x00\x00\x00\x00\x00\x07\x00\x00\x00\x00\x00\x00\x00\x08\x00\x00\x00\x00\x00\x00\x00\t\x00\x00\x00\x00\x00\x00\x00\n\x00\x00\x00\x00\x00\x00\x00\x0b\x00\x00\x00\x00\x00\x00\x00\x0c\x00\x00\x00\x00\x00\x00\x00\r\x00\x00\x00\x00\x00\x00\x00\x0e\x00\x00\x00\x00\x00\x00\x00\x0f\x00\x00\x00\x00\x00\x00\x00\x10\x00\x00\x00\x00\x00\x00\x00\x11\x00\x00\x00\x00\x00\x00\x00\x12\x00\x00\x00\x00\x00\x00\x00\x13\x00\x00\x00\x00\x00\x00\x00'
p94
tp95
bsg80
Nstp96
Rp97
a(lp98
g19
(g20
(I0
tp99
g22
tp100
Rp101
(I1
(I1
I20
tp102
g26
(S'f8'
p103
I0
I1
tp104
Rp105
(I3
S'<'
p106
NNNI-1
I-1
I0
tp107
bI00
S'\x00\x00\x00\x00@\xbd\xe1@\x00\x00\x00\x00@\xbd\xe1@\x00\x00\x00\x00@\xbd\xe1@\x00\x00\x00\x00@\xbd\xe1@\x00\x00\x00\x00@\xbd\xe1@\x00\x00\x00\x00@\xbd\xe1@\x00\x00\x00\x00\x00A\xe4@\x00\x00\x00\x00\x00A\xe4@\x00\x00\x00\x00\x00A\xe4@\x00\x00\x00\x00\x00A\xe4@\x00\x00\x00\x00\x00A\xe4@\x00\x00\x00\x00\x00A\xe4@\x00\x00\x00\x00\xc06\xed@\x00\x00\x00\x00\xc06\xed@\x00\x00\x00\x00\xc06\xed@\x00\x00\x00\x00\xc06\xed@\x00\x00\x00\x00\xc06\xed@\x00\x00\x00\x00\xc06\xed@\x00\x00\x00\x00\x00\x00\xf0?\x00\x00\x00\x00\x00\x00\xf0\xbf'
p108
tp109
bag19
(g20
(I0
tp110
g22
tp111
Rp112
(I1
(I45
I20
tp113
g29
I00
(lp114
S'2016'
p115
ag115
ag115
ag115
ag115
ag115
aS'2017'
p116
ag116
ag116
ag116
ag116
ag116
aS'2018'
p117
ag117
ag117
ag117
ag117
ag117
aS'merged'
p118
ag118
aS'sig'
p119
ag119
ag119
ag119
ag119
ag119
ag119
ag119
ag119
ag119
ag119
ag119
ag119
ag119
ag119
ag119
ag119
ag119
aS'bkg'
p120
ag18
aS'GG2H'
p121
aS'THQ'
p122
aS'TTH'
p123
aS'Tprime900'
p124
aS'VBF'
p125
aS'VH'
p126
ag121
ag122
ag123
ag124
ag125
ag126
ag121
ag122
ag123
ag124
ag125
ag126
aS'bkg_mass'
p127
aS'data_obs'
p128
aS'ggH_2016_hgg'
p129
aS'tHq_2016_hgg'
p130
aS'ttH_2016_hgg'
p131
aS'TvlqM900_2016_hgg'
p132
aS'qqH_2016_hgg'
p133
aS'VH_2016_hgg'
p134
aS'ggH_2017_hgg'
p135
aS'tHq_2017_hgg'
p136
aS'ttH_2017_hgg'
p137
aS'TvlqM900_2017_hgg'
p138
aS'qqH_2017_hgg'
p139
aS'VH_2017_hgg'
p140
aS'ggH_2018_hgg'
p141
aS'tHq_2018_hgg'
p142
aS'ttH_2018_hgg'
p143
aS'TvlqM900_2018_hgg'
p144
aS'qqH_2018_hgg'
p145
aS'VH_2018_hgg'
p146
ag127
ag128
aS'ggh'
p147
aS'thq'
p148
aS'tth'
p149
aS'TprimeM900'
p150
aS'vbf'
p151
aS'vh'
p152
ag147
ag148
ag149
ag150
ag151
ag152
ag147
ag148
ag149
ag150
ag151
ag152
aS'-'
p153
ag153
aS'THQHadronicTag'
p154
ag154
ag154
ag154
ag154
ag154
ag154
ag154
ag154
ag154
ag154
ag154
ag154
ag154
ag154
ag154
ag154
ag154
ag154
ag154
aS'/eos/user/p/prsaha/Tprime_analysis/FinalFit_inputs/UL/v2/900/2016/output_GluGluHToGG_M125_TuneCP5Down_13TeV-amcatnloFXFX-pythia8_GG2H.root'
p155
aS'/eos/user/p/prsaha/Tprime_analysis/FinalFit_inputs/UL/v2/900/2016/output_THQ_ctcvcp_HToGG_M125_13TeV-madgraph-pythia8_THQ.root'
p156
aS'/eos/user/p/prsaha/Tprime_analysis/FinalFit_inputs/UL/v2/900/2016/output_ttHJetToGG_M125_13TeV_amcatnloFXFX_madspin_pythia8_TTH.root'
p157
aS'/eos/user/p/prsaha/Tprime_analysis/FinalFit_inputs/UL/v2/900/2016/output_TprimeBToTH_Hgg_M125_M-900_LH_TuneCP5_PSweights_13TeV-madgraph_pythia8_Tprime900.root'
p158
aS'/eos/user/p/prsaha/Tprime_analysis/FinalFit_inputs/UL/v2/900/2016/output_VBFHToGG_M125_13TeV_amcatnlo_pythia8_VBF.root'
p159
aS'/eos/user/p/prsaha/Tprime_analysis/FinalFit_inputs/UL/v2/900/2016/output_VHToGG_M125_13TeV_amcatnloFXFX_madspin_pythia8_VH.root'
p160
aS'/eos/user/p/prsaha/Tprime_analysis/FinalFit_inputs/UL/v2/900/2017/output_GluGluHToGG_M125_TuneCP5Down_13TeV-amcatnloFXFX-pythia8_GG2H.root'
p161
aS'/eos/user/p/prsaha/Tprime_analysis/FinalFit_inputs/UL/v2/900/2017/output_THQ_ctcvcp_HToGG_M125_13TeV-madgraph-pythia8_THQ.root'
p162
aS'/eos/user/p/prsaha/Tprime_analysis/FinalFit_inputs/UL/v2/900/2017/output_ttHJetToGG_M125_13TeV_amcatnloFXFX_madspin_pythia8_TTH.root'
p163
aS'/eos/user/p/prsaha/Tprime_analysis/FinalFit_inputs/UL/v2/900/2017/output_TprimeBToTH_Hgg_M125_M-900_LH_TuneCP5_PSweights_13TeV-madgraph_pythia8_Tprime900.root'
p164
aS'/eos/user/p/prsaha/Tprime_analysis/FinalFit_inputs/UL/v2/900/2017/output_VBFHToGG_M125_13TeV_amcatnlo_pythia8_VBF.root'
p165
aS'/eos/user/p/prsaha/Tprime_analysis/FinalFit_inputs/UL/v2/900/2017/output_VHToGG_M125_13TeV_amcatnloFXFX_madspin_pythia8_VH.root'
p166
aS'/eos/user/p/prsaha/Tprime_analysis/FinalFit_inputs/UL/v2/900/2018/output_GluGluHToGG_M125_TuneCP5Down_13TeV-amcatnloFXFX-pythia8_GG2H.root'
p167
aS'/eos/user/p/prsaha/Tprime_analysis/FinalFit_inputs/UL/v2/900/2018/output_THQ_ctcvcp_HToGG_M125_13TeV-madgraph-pythia8_THQ.root'
p168
aS'/eos/user/p/prsaha/Tprime_analysis/FinalFit_inputs/UL/v2/900/2018/output_ttHJetToGG_M125_13TeV_amcatnloFXFX_madspin_pythia8_TTH.root'
p169
aS'/eos/user/p/prsaha/Tprime_analysis/FinalFit_inputs/UL/v2/900/2018/output_TprimeBToTH_Hgg_M125_M-900_LH_TuneCP5_PSweights_13TeV-madgraph_pythia8_Tprime900.root'
p170
aS'/eos/user/p/prsaha/Tprime_analysis/FinalFit_inputs/UL/v2/900/2018/output_VBFHToGG_M125_13TeV_amcatnlo_pythia8_VBF.root'
p171
aS'/eos/user/p/prsaha/Tprime_analysis/FinalFit_inputs/UL/v2/900/2018/output_VHToGG_M125_13TeV_amcatnloFXFX_madspin_pythia8_VH.root'
p172
ag153
ag153
aS'ggh_125_13TeV_THQHadronicTag'
p173
aS'thq_125_13TeV_THQHadronicTag'
p174
aS'tth_125_13TeV_THQHadronicTag'
p175
aS'TprimeM900_125_13TeV_THQHadronicTag'
p176
aS'vbf_125_13TeV_THQHadronicTag'
p177
aS'vh_125_13TeV_THQHadronicTag'
p178
aS'ggh_125_13TeV_THQHadronicTag'
p179
aS'thq_125_13TeV_THQHadronicTag'
p180
aS'tth_125_13TeV_THQHadronicTag'
p181
aS'TprimeM900_125_13TeV_THQHadronicTag'
p182
aS'vbf_125_13TeV_THQHadronicTag'
p183
aS'vh_125_13TeV_THQHadronicTag'
p184
aS'ggh_125_13TeV_THQHadronicTag'
p185
aS'thq_125_13TeV_THQHadronicTag'
p186
aS'tth_125_13TeV_THQHadronicTag'
p187
aS'TprimeM900_125_13TeV_THQHadronicTag'
p188
aS'vbf_125_13TeV_THQHadronicTag'
p189
aS'vh_125_13TeV_THQHadronicTag'
p190
ag153
ag153
aS'./Models_Tprime900/signal/CMS-HGG_sigfit_packaged_Tprime900_THQHadronicTag.root'
p191
aS'./Models_Tprime900/signal/CMS-HGG_sigfit_packaged_Tprime900_THQHadronicTag.root'
p192
aS'./Models_Tprime900/signal/CMS-HGG_sigfit_packaged_Tprime900_THQHadronicTag.root'
p193
aS'./Models_Tprime900/signal/CMS-HGG_sigfit_packaged_Tprime900_THQHadronicTag.root'
p194
aS'./Models_Tprime900/signal/CMS-HGG_sigfit_packaged_Tprime900_THQHadronicTag.root'
p195
aS'./Models_Tprime900/signal/CMS-HGG_sigfit_packaged_Tprime900_THQHadronicTag.root'
p196
aS'./Models_Tprime900/signal/CMS-HGG_sigfit_packaged_Tprime900_THQHadronicTag.root'
p197
aS'./Models_Tprime900/signal/CMS-HGG_sigfit_packaged_Tprime900_THQHadronicTag.root'
p198
aS'./Models_Tprime900/signal/CMS-HGG_sigfit_packaged_Tprime900_THQHadronicTag.root'
p199
aS'./Models_Tprime900/signal/CMS-HGG_sigfit_packaged_Tprime900_THQHadronicTag.root'
p200
aS'./Models_Tprime900/signal/CMS-HGG_sigfit_packaged_Tprime900_THQHadronicTag.root'
p201
aS'./Models_Tprime900/signal/CMS-HGG_sigfit_packaged_Tprime900_THQHadronicTag.root'
p202
aS'./Models_Tprime900/signal/CMS-HGG_sigfit_packaged_Tprime900_THQHadronicTag.root'
p203
aS'./Models_Tprime900/signal/CMS-HGG_sigfit_packaged_Tprime900_THQHadronicTag.root'
p204
aS'./Models_Tprime900/signal/CMS-HGG_sigfit_packaged_Tprime900_THQHadronicTag.root'
p205
aS'./Models_Tprime900/signal/CMS-HGG_sigfit_packaged_Tprime900_THQHadronicTag.root'
p206
aS'./Models_Tprime900/signal/CMS-HGG_sigfit_packaged_Tprime900_THQHadronicTag.root'
p207
aS'./Models_Tprime900/signal/CMS-HGG_sigfit_packaged_Tprime900_THQHadronicTag.root'
p208
aS'./Models_Tprime900/background/CMS-HGG_multipdf_THQHadronicTag.root'
p209
ag209
aS'wsig_13TeV:hggpdfsmrel_GG2H_2016_THQHadronicTag_13TeV'
p210
aS'wsig_13TeV:hggpdfsmrel_THQ_2016_THQHadronicTag_13TeV'
p211
aS'wsig_13TeV:hggpdfsmrel_TTH_2016_THQHadronicTag_13TeV'
p212
aS'wsig_13TeV:hggpdfsmrel_Tprime900_2016_THQHadronicTag_13TeV'
p213
aS'wsig_13TeV:hggpdfsmrel_VBF_2016_THQHadronicTag_13TeV'
p214
aS'wsig_13TeV:hggpdfsmrel_VH_2016_THQHadronicTag_13TeV'
p215
aS'wsig_13TeV:hggpdfsmrel_GG2H_2017_THQHadronicTag_13TeV'
p216
aS'wsig_13TeV:hggpdfsmrel_THQ_2017_THQHadronicTag_13TeV'
p217
aS'wsig_13TeV:hggpdfsmrel_TTH_2017_THQHadronicTag_13TeV'
p218
aS'wsig_13TeV:hggpdfsmrel_Tprime900_2017_THQHadronicTag_13TeV'
p219
aS'wsig_13TeV:hggpdfsmrel_VBF_2017_THQHadronicTag_13TeV'
p220
aS'wsig_13TeV:hggpdfsmrel_VH_2017_THQHadronicTag_13TeV'
p221
aS'wsig_13TeV:hggpdfsmrel_GG2H_2018_THQHadronicTag_13TeV'
p222
aS'wsig_13TeV:hggpdfsmrel_THQ_2018_THQHadronicTag_13TeV'
p223
aS'wsig_13TeV:hggpdfsmrel_TTH_2018_THQHadronicTag_13TeV'
p224
aS'wsig_13TeV:hggpdfsmrel_Tprime900_2018_THQHadronicTag_13TeV'
p225
aS'wsig_13TeV:hggpdfsmrel_VBF_2018_THQHadronicTag_13TeV'
p226
aS'wsig_13TeV:hggpdfsmrel_VH_2018_THQHadronicTag_13TeV'
p227
aS'multipdf:CMS_hgg_THQHadronicTag_13TeV_bkgshape'
p228
aS'multipdf:roohist_data_mass_THQHadronicTag'
p229
aF0.0036588884079833406
aF0.0018101662283970983
aF0.007415167430933067
aF0.009984082530177532
aF0.00021558206071858876
aF0.00032883515785897544
aF0.0012655309919864521
aF0.002205209638407979
aF0.006953992372473294
aF0.010621651218556849
aF0.00011957755668845493
aF0.0003379726713319542
aF0.0011843318588944385
aF0.0023557664731619354
aF0.007908316175416985
aF0.011554903423302676
aF0.00023296346716961125
aF0.0008924013627620297
ag153
ag153
aF8.332911091924306e-07
aF1.6993394701424411e-10
aF5.898037430894514e-07
aF1.4902825364648855e-09
aF2.4358810928592974e-08
aF7.243333003879945e-08
aF2.5562714301266217e-07
aF2.0852603312259727e-10
aF1.9923211568990017e-07
aF1.604810543913615e-09
aF1.3331027237285954e-08
aF3.7738340197511294e-08
aF3.0090348793838783e-07
aF2.4547013778957574e-10
aF2.633760820769672e-07
aF1.9132559098647984e-09
aF2.042752310839614e-08
aF5.967170834802328e-08
ag153
ag153
aF0.008470162080420774
aF0.0019026867899262607
aF0.007741565106398373
aF0.010512570135028827
aF0.0002798750309265617
aF0.00038616126506729357
aF0.002846640789938455
aF0.0021812069961466675
aF0.006497802372081659
aF0.010436962619078248
aF0.00011963786377379902
aF0.00030713423000206213
aF0.001949697041625094
aF0.002165947697666934
aF0.006913845077438676
aF0.010574527308376366
aF0.0001996510917037445
aF0.0006405728847148055
ag153
ag153
aF0.003658964766450237
aF0.0018101806638649606
aF0.007415203605138417
aF0.009984163406789481
aF0.00021558174506453696
aF0.000328842895528383
aF0.0012747598007150323
aF0.002221140114896744
aF0.007004858106265754
aF0.010698547583491364
aF0.00012039905880834847
aF0.0003404853055375845
aF0.001184330660707525
aF0.0023557837725744013
aF0.007908397236599932
aF0.01155499135346244
aF0.00023296846861951175
aF0.0008924032838132474
ag153
ag153
aF0.0036588119370543804
aF0.0018101517757742865
aF0.007415131214860014
aF0.009984001557586117
aF0.00021558237695217677
aF0.0003288274078826655
aF0.0012563361459297557
aF0.0021893370353462537
aF0.006903314135258929
aF0.01054503473439289
aF0.00011875899682321844
aF0.0003354695502603413
aF0.0011843330386909468
aF0.002355749153184537
aF0.007908235018152623
aF0.011554815385907807
aF0.0002329584587952666
aF0.0008923994415822269
ag153
ag153
aF0.0036709674406473977
aF0.0018145193721385087
aF0.007434422563521101
aF0.01000766730668434
aF0.0002153988554525955
aF0.00032886112541635076
aF0.001283561092582938
aF0.0022339674259742805
aF0.007040164537602431
aF0.010759028380627467
aF0.00012027533335750841
aF0.0003402539132831494
aF0.0011905365151580933
aF0.002372085311739974
aF0.007963823921466016
aF0.011634280226522778
aF0.00023473151192925817
aF0.0008990382322397989
ag153
ag153
aF0.003646834882621084
aF0.0018058197808377271
aF0.007395945306751889
aF0.009960533169743593
aF0.00021576328788113622
aF0.0003288092390607114
aF0.0012476154503257345
aF0.002176635682741331
aF0.006868373320917089
aF0.010485144610103326
aF0.00011888088571648192
aF0.00033569666970088765
aF0.0011781445859824582
aF0.0023395073375191726
aF0.007853019704628188
aF0.011475814717448341
aF0.00023120355043174096
aF0.0008857945625383826
ag153
ag153
aF0.003667408233298358
aF0.0018130011128240588
aF0.007427298313180389
aF0.00999957714020407
aF0.00021552712955486903
aF0.00032904956671445134
aF0.0012681174468132134
aF0.0022102336079204785
aF0.006969808515816602
aF0.010645778064434962
aF0.00012016713158138402
aF0.00033871457995270136
aF0.0011857589698994597
aF0.002358911732027404
aF0.007919312741260755
aF0.011570245127900424
aF0.00023333446361363758
aF0.0008934517089117782
ag153
ag153
aF0.0036503777655923554
aF0.0018073335526570657
aF0.007403047268558091
aF0.009968599864507528
aF0.00021563660511538963
aF0.00032862075021156546
aF0.0012629472553046888
aF0.0022001916572282638
aF0.006938196113624316
aF0.01059755299938042
aF0.00011898902111401761
aF0.0003372317415916838
aF0.0011829050141013485
aF0.0023526234920114224
aF0.007897328362522346
aF0.011539572850500718
aF0.00023259275051045768
aF0.0008913519469463416
ag153
ag153
aF0.0036716625392571914
aF0.0018139006369523635
aF0.007430494911517044
aF0.010004717489428957
aF0.0002159927400019916
aF0.00032946072680761567
aF0.0012681590091723784
aF0.00221043310008754
aF0.006970150008718321
aF0.010646751908316453
aF0.00011994399225407362
aF0.0003388186102623283
aF0.0011867130104407234
aF0.0023607521589100312
aF0.007925276273186508
aF0.01157934540933887
aF0.00023346777762007478
aF0.000894121409778637
ag153
ag153
aF0.00364613253542975
aF0.001806435708788453
aF0.00739985594839486
aF0.009963469079623062
aF0.00021517178124522203
aF0.00032821019092176305
aF0.0012629056873974481
aF0.0021999924160640673
aF0.00693785388475766
aF0.010596580429505984
aF0.00011921161897735915
aF0.00033712775135182836
aF0.001181953091628977
aF0.0023507860890008333
aF0.007891374437528598
aF0.011530487427133421
aF0.00023245968562077653
aF0.0008906829681743457
ag153
ag153
aF0.0036588884079833406
aF0.0018101662283970983
aF0.007415167430933067
aF0.009984082530177532
aF0.00021558206071858876
aF0.00032883515785897544
aF0.0012655309919864521
aF0.002205209638407979
aF0.006953992372473294
aF0.010621651218556849
aF0.00011957755668845493
aF0.0003379726713319542
aF0.0011843318588944385
aF0.0023557664731619354
aF0.007908316175416985
aF0.011554903423302676
aF0.00023296346716961125
aF0.0008924013627620297
ag153
ag153
aF0.0036588884079833406
aF0.0018101662283970983
aF0.007415167430933067
aF0.009984082530177532
aF0.00021558206071858876
aF0.00032883515785897544
aF0.0012655309919864521
aF0.002205209638407979
aF0.006953992372473294
aF0.010621651218556849
aF0.00011957755668845493
aF0.0003379726713319542
aF0.0011843318588944385
aF0.0023557664731619354
aF0.007908316175416985
aF0.011554903423302676
aF0.00023296346716961125
aF0.0008924013627620297
ag153
ag153
aF0.0036588884079833406
aF0.0018101662283970983
aF0.007415167430933067
aF0.009984082530177532
aF0.00021558206071858876
aF0.00032883515785897544
aF0.0012655309919864521
aF0.002205209638407979
aF0.006953992372473294
aF0.010621651218556849
aF0.00011957755668845493
aF0.0003379726713319542
aF0.0011843318588944385
aF0.0023557664731619354
aF0.007908316175416985
aF0.011554903423302676
aF0.00023296346716961125
aF0.0008924013627620297
ag153
ag153
aF0.0036588884079833406
aF0.0018101662283970983
aF0.007415167430933067
aF0.009984082530177532
aF0.00021558206071858876
aF0.00032883515785897544
aF0.0012655309919864521
aF0.002205209638407979
aF0.006953992372473294
aF0.010621651218556849
aF0.00011957755668845493
aF0.0003379726713319542
aF0.0011843318588944385
aF0.0023557664731619354
aF0.007908316175416985
aF0.011554903423302676
aF0.00023296346716961125
aF0.0008924013627620297
ag153
ag153
aF0.0036588884079833406
aF0.0018101662283970983
aF0.007415167430933067
aF0.009984082530177532
aF0.00021558206071858876
aF0.00032883515785897544
aF0.0012655309919864521
aF0.002205209638407979
aF0.006953992372473294
aF0.010621651218556849
aF0.00011957755668845493
aF0.0003379726713319542
aF0.0011843318588944385
aF0.0023557664731619354
aF0.007908316175416985
aF0.011554903423302676
aF0.00023296346716961125
aF0.0008924013627620297
ag153
ag153
aF0.0036588884079833406
aF0.0018101662283970983
aF0.007415167430933067
aF0.009984082530177532
aF0.00021558206071858876
aF0.00032883515785897544
aF0.0012655309919864521
aF0.002205209638407979
aF0.006953992372473294
aF0.010621651218556849
aF0.00011957755668845493
aF0.0003379726713319542
aF0.0011843318588944385
aF0.0023557664731619354
aF0.007908316175416985
aF0.011554903423302676
aF0.00023296346716961125
aF0.0008924013627620297
ag153
ag153
aF0.0036588884079833406
aF0.0018101662283970983
aF0.007415167430933067
aF0.009984082530177532
aF0.00021558206071858876
aF0.00032883515785897544
aF0.0012655309919864521
aF0.002205209638407979
aF0.006953992372473294
aF0.010621651218556849
aF0.00011957755668845493
aF0.0003379726713319542
aF0.0011843318588944385
aF0.0023557664731619354
aF0.007908316175416985
aF0.011554903423302676
aF0.00023296346716961125
aF0.0008924013627620297
ag153
ag153
aF0.0036588884079833406
aF0.0018101662283970983
aF0.007415167430933067
aF0.009984082530177532
aF0.00021558206071858876
aF0.00032883515785897544
aF0.0012655309919864521
aF0.002205209638407979
aF0.006953992372473294
aF0.010621651218556849
aF0.00011957755668845493
aF0.0003379726713319542
aF0.0011843318588944385
aF0.0023557664731619354
aF0.007908316175416985
aF0.011554903423302676
aF0.00023296346716961125
aF0.0008924013627620297
ag153
ag153
aF0.003712100181937839
aF0.0018156643187509935
aF0.00741117429696812
aF0.010003219139560563
aF0.0002231706335079581
aF0.0003254224281253408
aF0.0012613446685838887
aF0.002192500083032243
aF0.006889819033148894
aF0.010546933714174821
aF0.0001251382447070807
aF0.0003270785365033939
aF0.0011382269938541281
aF0.0023476620849407614
aF0.007870575406592521
aF0.011494312227729613
aF0.00024529859170036483
aF0.0008628135015824482
ag153
ag153
aF0.0036051702178566333
aF0.0018073700838371607
aF0.0074368338077945165
aF0.009975331791104457
aF0.0002113544379066981
aF0.0003315800466557019
aF0.0012479257014631478
aF0.0022219962044614057
aF0.007021924127825965
aF0.010716913897517086
aF0.00011529262010258218
aF0.00033612214939766807
aF0.0012069254638365483
aF0.002379284669580402
aF0.008034597845730306
aF0.011686187171773882
aF0.00024060139174418024
aF0.0009207967364916092
ag153
ag153
aF0.00789507451912641
aF0.0018101662283970983
aF0.007415167430933067
aF0.009984082530177532
aF0.00021558206071858876
aF0.00032883515785897544
aF0.0029219127536634915
aF0.002205209638407979
aF0.006953992372473294
aF0.010621651218556849
aF0.00011957755668845493
aF0.0003379726713319542
aF0.0028992383086006157
aF0.0023557664731619354
aF0.007921101687315968
aF0.011554903423302676
aF161.0
aF0.0008924013627620297
ag153
ag153
aF0.00789507451912641
aF0.0018101662283970983
aF0.007415167430933067
aF0.009984082530177532
aF0.00021558206071858876
aF0.00032883515785897544
aF0.0029219127536634915
aF0.002205209638407979
aF0.006953992372473294
aF0.010621651218556849
aF0.00011957755668845493
aF0.0003379726713319542
aF0.0028992383086006157
aF0.0023557664731619354
aF0.007908316175416985
aF0.011554903423302676
aF161.0
aF0.0008924013627620297
ag153
ag153
aF0.007871916543024327
aF0.0018292581900216827
aF0.007399855152688595
aF0.010117083036643881
aF0.00022196584586708923
aF0.0004010976587665027
aF0.0029219127536634915
aF0.0022329320614495884
aF0.0070433452256111195
aF0.01076703155257519
aF0.0001556450997668435
aF0.00032751508661021944
aF0.0029819003539159894
aF0.0024000785838289573
aF0.008250589464751101
aF0.011796984367457242
aF161.0
aF0.0009833552639975096
ag153
ag153
aF0.00789507451912641
aF0.0017808958512632485
aF0.007349370786270626
aF0.009808065453318929
aF0.00021558206071858876
aF0.00029824237179809643
aF0.002557022060500458
aF0.002174676177713053
aF0.006818141358508001
aF0.010467442700630158
aF0.0001482022289565066
aF0.00036124219695921056
aF0.0028567065965035
aF0.0022977824043266537
aF0.007672257750527933
aF0.01125544552982305
aF161.0
aF0.0008520465189576498
ag153
ag153
aF0.00841517742077258
aF0.0018648902848071233
aF0.0073030666789897225
aF0.010184820547398736
aF0.0001783134543984488
aF0.0004172906001826959
aF0.004874418053077534
aF0.002307962972562194
aF0.007031776621488461
aF0.010963605341757443
aF0.00024118874080159003
aF0.0005623185243166517
aF0.0033202281992998905
aF0.0024336198505423567
aF0.00853190321731745
aF0.011866666193199649
aF162.0
aF0.0010119642420249875
ag153
ag153
aF0.007700920901640984
aF0.0017484051113612446
aF0.006667978715624301
aF0.009747072523516547
aF0.0003332034343657142
aF0.0003732474041697742
aF0.003126195602817461
aF0.002101764424732977
aF0.006927389941211004
aF0.010261089919104904
aF0.000149625832818856
aF0.00030515851722157095
aF0.003099344001384452
aF0.0022659150347443813
aF0.00820666775052814
aF0.011174010959162928
aF162.0
aF0.0007299634617083939
ag153
ag153
aF0.008883861366427936
aF0.001817914591907166
aF0.007214787203928097
aF0.0099818449136072
aF0.00029499086895157234
aF0.00021069089625314064
aF0.003471177173196338
aF0.0022111448865729244
aF0.007019050033704843
aF0.010638507664815222
aF0.00010145819032914005
aF0.00043371455922169844
aF0.0030539876606781036
aF0.0023652852412681113
aF0.008173462289960298
aF0.011545087211274563
aF162.0
aF0.0009859840683930088
ag153
ag153
aF0.006430189478123793
aF0.0018106414587958017
aF0.007260545130847618
aF0.009979428210354892
aF0.0002802608955789765
aF0.000517771618760321
aF0.003024606572580524
aF0.0021977851845988994
aF0.007095681851978952
aF0.010602532221774652
aF0.00014152498715702677
aF0.00026672483545553405
aF0.002548720483900979
aF0.002345767718093583
aF0.008179392757483583
aF0.011529286478442202
aF160.0
aF0.000976391739641258
ag153
ag153
aF0.00789507451912641
aF0.0018089468420696038
aF0.007497660201094547
aF0.009983975173755918
aF0.00018475990736988024
aF0.00032883515785897544
aF0.0030141184106469154
aF0.0022067553851599087
aF0.006967041392726969
aF0.01062109741800299
aF0.00010924185971816769
aF0.0003571720026229741
aF0.003141005894576665
aF0.0023556857781095175
aF0.007949141723656794
aF0.01157002821286568
aF161.0
aF0.0009531673758829129
ag153
ag153
aF0.007632151213272209
aF0.0018112613386043093
aF0.007461147334394624
aF0.009989948418725199
aF0.000295016551262961
aF0.000294958080928609
aF0.0030217435560189188
aF0.0022075718526686217
aF0.00698948505350927
aF0.010625456147671741
aF0.00011514877769513987
aF0.00035363567621971015
aF0.0028913351270603016
aF0.0023603397703269025
aF0.007954655395224108
aF0.011587211159849176
aF161.0
aF0.0008767691151660983
ag153
ag153
aF0.007935442117684488
aF0.0018153516322588388
aF0.007442693139379841
aF0.009998377108934704
aF0.00024161923147403286
aF0.000294958080928609
aF0.0030217435560189188
aF0.0022103382407117067
aF0.00701595221653406
aF0.0106424792568518
aF0.00015038209221529542
aF0.000370646770534222
aF0.003148778938339092
aF0.002361729459238404
aF0.007946570571675693
aF0.011584049073420033
aF161.0
aF0.0008969244454419822
ag153
ag153
aF0.008490164440388526
aF0.0018064610627205914
aF0.007369275363286576
aF0.009973100338139987
aF0.00019073081466558506
aF0.00032883515785897544
aF0.0030141184106469154
aF0.0022009548409940294
aF0.007003247657848988
aF0.010599733360855623
aF0.00010924185971816769
aF0.0003379726713319542
aF0.002626785535539966
aF0.0023492510368789965
aF0.007889234924277844
aF0.01153954727356421
aF160.0
aF0.0009239728124157409
ag153
ag153
aF0.007959646143660848
aF0.0018138862862389533
aF0.007428568990432538
aF0.009998895555669123
aF0.00024161923147403286
aF0.000294958080928609
aF0.0031503591017099097
aF0.002210944026440842
aF0.007009662058862887
aF0.010643191690149933
aF0.00016606240660621552
aF0.00031968958501238376
aF0.0030740776419406757
aF0.002358608315322641
aF0.007886698383572366
aF0.011571922112082689
aF161.0
aF0.0008969244454419822
ag153
ag153
aF0.00789507451912641
aF0.0018085835695197845
aF0.007363159000957964
aF0.009979403265365852
aF0.00018475990736988024
aF0.00032883515785897544
aF0.0029219127536634915
aF0.00220277928818291
aF0.00705039984677569
aF0.010609737012401865
aF7.927092065074248e-05
aF0.0003379726713319542
aF0.002793456289509777
aF0.0023526594549174717
aF0.007773734045258607
aF0.01155590731578826
aF160.0
aF0.0009239728124157409
ag153
ag153
atp230
ba(lp231
g15
(g16
(dp232
g18
g19
(g20
(I0
tp233
g22
tp234
Rp235
(I1
(I1
tp236
g29
I00
(lp237
g43
atp238
bsg80
Nstp239
Rp240
ag15
(g16
(dp241
g18
g19
(g20
(I0
tp242
g22
tp243
Rp244
(I1
(I45
tp245
g29
I00
(lp246
g33
ag34
ag35
ag36
ag37
ag38
ag39
ag40
ag41
ag42
ag44
ag45
ag46
ag47
ag48
ag49
ag50
ag51
ag52
ag53
ag54
ag55
ag56
ag57
ag58
ag59
ag60
ag61
ag62
ag63
ag64
ag65
ag66
ag67
ag68
ag69
ag70
ag71
ag72
ag73
ag74
ag75
ag76
ag77
ag78
atp247
bsg80
Nstp248
Rp249
a(dp250
S'0.14.1'
p251
(dp252
S'axes'
p253
g14
sS'blocks'
p254
(lp255
(dp256
S'mgr_locs'
p257
c__builtin__
slice
p258
(I10
I11
I1
tp259
Rp260
sS'values'
p261
g101
sa(dp262
g257
g19
(g20
(I0
tp263
g22
tp264
Rp265
(I1
(I45
tp266
g91
I00
S'\x00\x00\x00\x00\x00\x00\x00\x00\x01\x00\x00\x00\x00\x00\x00\x00\x02\x00\x00\x00\x00\x00\x00\x00\x03\x00\x00\x00\x00\x00\x00\x00\x04\x00\x00\x00\x00\x00\x00\x00\x05\x00\x00\x00\x00\x00\x00\x00\x06\x00\x00\x00\x00\x00\x00\x00\x07\x00\x00\x00\x00\x00\x00\x00\x08\x00\x00\x00\x00\x00\x00\x00\t\x00\x00\x00\x00\x00\x00\x00\x0b\x00\x00\x00\x00\x00\x00\x00\x0c\x00\x00\x00\x00\x00\x00\x00\r\x00\x00\x00\x00\x00\x00\x00\x0e\x00\x00\x00\x00\x00\x00\x00\x0f\x00\x00\x00\x00\x00\x00\x00\x10\x00\x00\x00\x00\x00\x00\x00\x11\x00\x00\x00\x00\x00\x00\x00\x12\x00\x00\x00\x00\x00\x00\x00\x13\x00\x00\x00\x00\x00\x00\x00\x14\x00\x00\x00\x00\x00\x00\x00\x15\x00\x00\x00\x00\x00\x00\x00\x16\x00\x00\x00\x00\x00\x00\x00\x17\x00\x00\x00\x00\x00\x00\x00\x18\x00\x00\x00\x00\x00\x00\x00\x19\x00\x00\x00\x00\x00\x00\x00\x1a\x00\x00\x00\x00\x00\x00\x00\x1b\x00\x00\x00\x00\x00\x00\x00\x1c\x00\x00\x00\x00\x00\x00\x00\x1d\x00\x00\x00\x00\x00\x00\x00\x1e\x00\x00\x00\x00\x00\x00\x00\x1f\x00\x00\x00\x00\x00\x00\x00 \x00\x00\x00\x00\x00\x00\x00!\x00\x00\x00\x00\x00\x00\x00"\x00\x00\x00\x00\x00\x00\x00#\x00\x00\x00\x00\x00\x00\x00$\x00\x00\x00\x00\x00\x00\x00%\x00\x00\x00\x00\x00\x00\x00&\x00\x00\x00\x00\x00\x00\x00\'\x00\x00\x00\x00\x00\x00\x00(\x00\x00\x00\x00\x00\x00\x00)\x00\x00\x00\x00\x00\x00\x00*\x00\x00\x00\x00\x00\x00\x00+\x00\x00\x00\x00\x00\x00\x00,\x00\x00\x00\x00\x00\x00\x00-\x00\x00\x00\x00\x00\x00\x00'
p267
tp268
bsg261
g112
sasstp269
bsb.