ccopy_reg
_reconstructor
p0
(cpandas.core.frame
DataFrame
p1
c__builtin__
object
p2
Ntp3
Rp4
(dp5
S'_metadata'
p6
(lp7
sS'_typ'
p8
S'dataframe'
p9
sS'_data'
p10
g0
(cpandas.core.internals
BlockManager
p11
g2
Ntp12
Rp13
((lp14
cpandas.core.indexes.base
_new_Index
p15
(cpandas.core.indexes.base
Index
p16
(dp17
S'data'
p18
cnumpy.core.multiarray
_reconstruct
p19
(cnumpy
ndarray
p20
(I0
tp21
S'b'
p22
tp23
Rp24
(I1
(I48
tp25
cnumpy
dtype
p26
(S'O8'
p27
I0
I1
tp28
Rp29
(I3
S'|'
p30
NNNI-1
I-1
I63
tp31
bI00
(lp32
S'year'
p33
aS'type'
p34
aS'procOriginal'
p35
aS'proc'
p36
aS'proc_s0'
p37
aS'cat'
p38
aS'inputWSFile'
p39
aS'nominalDataName'
p40
aS'modelWSFile'
p41
aS'model'
p42
aS'rate'
p43
aS'nominal_yield'
p44
aS'sumw2'
p45
aS'nominal_yield_COWCorr'
p46
aS'LooseMvaSF_up_yield'
p47
aS'LooseMvaSF_down_yield'
p48
aS'PreselSF_up_yield'
p49
aS'PreselSF_down_yield'
p50
aS'electronVetoSF_up_yield'
p51
aS'electronVetoSF_down_yield'
p52
aS'TriggerWeight_up_yield'
p53
aS'TriggerWeight_down_yield'
p54
aS'MuonIDWeight_up_yield'
p55
aS'MuonIDWeight_down_yield'
p56
aS'MuonIsoWeight_up_yield'
p57
aS'MuonIsoWeight_down_yield'
p58
aS'ElectronIDWeight_up_yield'
p59
aS'ElectronIDWeight_down_yield'
p60
aS'ElectronRecoWeight_up_yield'
p61
aS'ElectronRecoWeight_down_yield'
p62
aS'JetBTagReshapeWeight_up_yield'
p63
aS'JetBTagReshapeWeight_down_yield'
p64
aS'SigmaEOverEShift_up_yield'
p65
aS'SigmaEOverEShift_down_yield'
p66
aS'MvaShift_up_yield'
p67
aS'MvaShift_down_yield'
p68
aS'PUJIDShift_up_yield'
p69
aS'PUJIDShift_down_yield'
p70
aS'JEC_up_yield'
p71
aS'JEC_down_yield'
p72
aS'JER_up_yield'
p73
aS'JER_down_yield'
p74
aS'metJecUncertainty_up_yield'
p75
aS'metJecUncertainty_down_yield'
p76
aS'metPhoUncertainty_up_yield'
p77
aS'metPhoUncertainty_down_yield'
p78
aS'metUncUncertainty_up_yield'
p79
aS'metUncUncertainty_down_yield'
p80
atp81
bsS'name'
p82
Nstp83
Rp84
ag15
(cpandas.core.indexes.numeric
Int64Index
p85
(dp86
g18
g19
(g20
(I0
tp87
g22
tp88
Rp89
(I1
(I17
tp90
g26
(S'i8'
p91
I0
I1
tp92
Rp93
(I3
S'<'
p94
NNNI-1
I-1
I0
tp95
bI00
S'\x00\x00\x00\x00\x00\x00\x00\x00\x01\x00\x00\x00\x00\x00\x00\x00\x02\x00\x00\x00\x00\x00\x00\x00\x03\x00\x00\x00\x00\x00\x00\x00\x04\x00\x00\x00\x00\x00\x00\x00\x05\x00\x00\x00\x00\x00\x00\x00\x06\x00\x00\x00\x00\x00\x00\x00\x07\x00\x00\x00\x00\x00\x00\x00\x08\x00\x00\x00\x00\x00\x00\x00\t\x00\x00\x00\x00\x00\x00\x00\n\x00\x00\x00\x00\x00\x00\x00\x0b\x00\x00\x00\x00\x00\x00\x00\x0c\x00\x00\x00\x00\x00\x00\x00\r\x00\x00\x00\x00\x00\x00\x00\x0e\x00\x00\x00\x00\x00\x00\x00\x0f\x00\x00\x00\x00\x00\x00\x00\x10\x00\x00\x00\x00\x00\x00\x00'
p96
tp97
bsg82
Nstp98
Rp99
a(lp100
g19
(g20
(I0
tp101
g22
tp102
Rp103
(I1
(I1
I17
tp104
g26
(S'f8'
p105
I0
I1
tp106
Rp107
(I3
S'<'
p108
NNNI-1
I-1
I0
tp109
bI00
S'\x00\x00\x00\x00@\xbd\xe1@\x00\x00\x00\x00@\xbd\xe1@\x00\x00\x00\x00@\xbd\xe1@\x00\x00\x00\x00@\xbd\xe1@\x00\x00\x00\x00@\xbd\xe1@\x00\x00\x00\x00\x00A\xe4@\x00\x00\x00\x00\x00A\xe4@\x00\x00\x00\x00\x00A\xe4@\x00\x00\x00\x00\x00A\xe4@\x00\x00\x00\x00\x00A\xe4@\x00\x00\x00\x00\xc06\xed@\x00\x00\x00\x00\xc06\xed@\x00\x00\x00\x00\xc06\xed@\x00\x00\x00\x00\xc06\xed@\x00\x00\x00\x00\xc06\xed@\x00\x00\x00\x00\x00\x00\xf0?\x00\x00\x00\x00\x00\x00\xf0\xbf'
p110
tp111
bag19
(g20
(I0
tp112
g22
tp113
Rp114
(I1
(I47
I17
tp115
g29
I00
(lp116
S'2016'
p117
ag117
ag117
ag117
ag117
aS'2017'
p118
ag118
ag118
ag118
ag118
aS'2018'
p119
ag119
ag119
ag119
ag119
aS'merged'
p120
ag120
aS'sig'
p121
ag121
ag121
ag121
ag121
ag121
ag121
ag121
ag121
ag121
ag121
ag121
ag121
ag121
ag121
aS'bkg'
p122
ag18
aS'GG2H'
p123
aS'THQ'
p124
aS'TTH'
p125
aS'VBF'
p126
aS'VH'
p127
ag123
ag124
ag125
ag126
ag127
ag123
ag124
ag125
ag126
ag127
aS'bkg_mass'
p128
aS'data_obs'
p129
aS'ggH_2016_hgg'
p130
aS'tHq_2016_hgg'
p131
aS'ttH_2016_hgg'
p132
aS'qqH_2016_hgg'
p133
aS'VH_2016_hgg'
p134
aS'ggH_2017_hgg'
p135
aS'tHq_2017_hgg'
p136
aS'ttH_2017_hgg'
p137
aS'qqH_2017_hgg'
p138
aS'VH_2017_hgg'
p139
aS'ggH_2018_hgg'
p140
aS'tHq_2018_hgg'
p141
aS'ttH_2018_hgg'
p142
aS'qqH_2018_hgg'
p143
aS'VH_2018_hgg'
p144
ag128
ag129
aS'ggh'
p145
aS'thq'
p146
aS'tth'
p147
aS'vbf'
p148
aS'vh'
p149
ag145
ag146
ag147
ag148
ag149
ag145
ag146
ag147
ag148
ag149
aS'-'
p150
ag150
aS'THQHadronicTag'
p151
ag151
ag151
ag151
ag151
ag151
ag151
ag151
ag151
ag151
ag151
ag151
ag151
ag151
ag151
ag151
ag151
aS'/eos/user/p/prsaha/Tprime_analysis/FinalFit_inputs/UL/v2_CR2/2016/output_GluGluHToGG_M125_TuneCP5Down_13TeV-amcatnloFXFX-pythia8_GG2H.root'
p152
aS'/eos/user/p/prsaha/Tprime_analysis/FinalFit_inputs/UL/v2_CR2/2016/output_THQ_ctcvcp_HToGG_M125_13TeV-madgraph-pythia8_THQ.root'
p153
aS'/eos/user/p/prsaha/Tprime_analysis/FinalFit_inputs/UL/v2_CR2/2016/output_ttHJetToGG_M125_13TeV_amcatnloFXFX_madspin_pythia8_TTH.root'
p154
aS'/eos/user/p/prsaha/Tprime_analysis/FinalFit_inputs/UL/v2_CR2/2016/output_VBFHToGG_M125_13TeV_amcatnlo_pythia8_VBF.root'
p155
aS'/eos/user/p/prsaha/Tprime_analysis/FinalFit_inputs/UL/v2_CR2/2016/output_VHToGG_M125_13TeV_amcatnloFXFX_madspin_pythia8_VH.root'
p156
aS'/eos/user/p/prsaha/Tprime_analysis/FinalFit_inputs/UL/v2_CR2/2017/output_GluGluHToGG_M125_TuneCP5Down_13TeV-amcatnloFXFX-pythia8_GG2H.root'
p157
aS'/eos/user/p/prsaha/Tprime_analysis/FinalFit_inputs/UL/v2_CR2/2017/output_THQ_ctcvcp_HToGG_M125_13TeV-madgraph-pythia8_THQ.root'
p158
aS'/eos/user/p/prsaha/Tprime_analysis/FinalFit_inputs/UL/v2_CR2/2017/output_ttHJetToGG_M125_13TeV_amcatnloFXFX_madspin_pythia8_TTH.root'
p159
aS'/eos/user/p/prsaha/Tprime_analysis/FinalFit_inputs/UL/v2_CR2/2017/output_VBFHToGG_M125_13TeV_amcatnlo_pythia8_VBF.root'
p160
aS'/eos/user/p/prsaha/Tprime_analysis/FinalFit_inputs/UL/v2_CR2/2017/output_VHToGG_M125_13TeV_amcatnloFXFX_madspin_pythia8_VH.root'
p161
aS'/eos/user/p/prsaha/Tprime_analysis/FinalFit_inputs/UL/v2_CR2/2018/output_GluGluHToGG_M125_TuneCP5Down_13TeV-amcatnloFXFX-pythia8_GG2H.root'
p162
aS'/eos/user/p/prsaha/Tprime_analysis/FinalFit_inputs/UL/v2_CR2/2018/output_THQ_ctcvcp_HToGG_M125_13TeV-madgraph-pythia8_THQ.root'
p163
aS'/eos/user/p/prsaha/Tprime_analysis/FinalFit_inputs/UL/v2_CR2/2018/output_ttHJetToGG_M125_13TeV_amcatnloFXFX_madspin_pythia8_TTH.root'
p164
aS'/eos/user/p/prsaha/Tprime_analysis/FinalFit_inputs/UL/v2_CR2/2018/output_VBFHToGG_M125_13TeV_amcatnlo_pythia8_VBF.root'
p165
aS'/eos/user/p/prsaha/Tprime_analysis/FinalFit_inputs/UL/v2_CR2/2018/output_VHToGG_M125_13TeV_amcatnloFXFX_madspin_pythia8_VH.root'
p166
ag150
ag150
aS'ggh_125_13TeV_THQHadronicTag'
p167
aS'thq_125_13TeV_THQHadronicTag'
p168
aS'tth_125_13TeV_THQHadronicTag'
p169
aS'vbf_125_13TeV_THQHadronicTag'
p170
aS'vh_125_13TeV_THQHadronicTag'
p171
aS'ggh_125_13TeV_THQHadronicTag'
p172
aS'thq_125_13TeV_THQHadronicTag'
p173
aS'tth_125_13TeV_THQHadronicTag'
p174
aS'vbf_125_13TeV_THQHadronicTag'
p175
aS'vh_125_13TeV_THQHadronicTag'
p176
aS'ggh_125_13TeV_THQHadronicTag'
p177
aS'thq_125_13TeV_THQHadronicTag'
p178
aS'tth_125_13TeV_THQHadronicTag'
p179
aS'vbf_125_13TeV_THQHadronicTag'
p180
aS'vh_125_13TeV_THQHadronicTag'
p181
ag150
ag150
aS'./Models_HiggsCR/signal/CMS-HGG_sigfit_packaged_HiggsCR_THQHadronicTag.root'
p182
aS'./Models_HiggsCR/signal/CMS-HGG_sigfit_packaged_HiggsCR_THQHadronicTag.root'
p183
aS'./Models_HiggsCR/signal/CMS-HGG_sigfit_packaged_HiggsCR_THQHadronicTag.root'
p184
aS'./Models_HiggsCR/signal/CMS-HGG_sigfit_packaged_HiggsCR_THQHadronicTag.root'
p185
aS'./Models_HiggsCR/signal/CMS-HGG_sigfit_packaged_HiggsCR_THQHadronicTag.root'
p186
aS'./Models_HiggsCR/signal/CMS-HGG_sigfit_packaged_HiggsCR_THQHadronicTag.root'
p187
aS'./Models_HiggsCR/signal/CMS-HGG_sigfit_packaged_HiggsCR_THQHadronicTag.root'
p188
aS'./Models_HiggsCR/signal/CMS-HGG_sigfit_packaged_HiggsCR_THQHadronicTag.root'
p189
aS'./Models_HiggsCR/signal/CMS-HGG_sigfit_packaged_HiggsCR_THQHadronicTag.root'
p190
aS'./Models_HiggsCR/signal/CMS-HGG_sigfit_packaged_HiggsCR_THQHadronicTag.root'
p191
aS'./Models_HiggsCR/signal/CMS-HGG_sigfit_packaged_HiggsCR_THQHadronicTag.root'
p192
aS'./Models_HiggsCR/signal/CMS-HGG_sigfit_packaged_HiggsCR_THQHadronicTag.root'
p193
aS'./Models_HiggsCR/signal/CMS-HGG_sigfit_packaged_HiggsCR_THQHadronicTag.root'
p194
aS'./Models_HiggsCR/signal/CMS-HGG_sigfit_packaged_HiggsCR_THQHadronicTag.root'
p195
aS'./Models_HiggsCR/signal/CMS-HGG_sigfit_packaged_HiggsCR_THQHadronicTag.root'
p196
aS'./Models_HiggsCR/background/CMS-HGG_multipdf_THQHadronicTag.root'
p197
ag197
aS'wsig_13TeV:hggpdfsmrel_GG2H_2016_THQHadronicTag_13TeV'
p198
aS'wsig_13TeV:hggpdfsmrel_THQ_2016_THQHadronicTag_13TeV'
p199
aS'wsig_13TeV:hggpdfsmrel_TTH_2016_THQHadronicTag_13TeV'
p200
aS'wsig_13TeV:hggpdfsmrel_VBF_2016_THQHadronicTag_13TeV'
p201
aS'wsig_13TeV:hggpdfsmrel_VH_2016_THQHadronicTag_13TeV'
p202
aS'wsig_13TeV:hggpdfsmrel_GG2H_2017_THQHadronicTag_13TeV'
p203
aS'wsig_13TeV:hggpdfsmrel_THQ_2017_THQHadronicTag_13TeV'
p204
aS'wsig_13TeV:hggpdfsmrel_TTH_2017_THQHadronicTag_13TeV'
p205
aS'wsig_13TeV:hggpdfsmrel_VBF_2017_THQHadronicTag_13TeV'
p206
aS'wsig_13TeV:hggpdfsmrel_VH_2017_THQHadronicTag_13TeV'
p207
aS'wsig_13TeV:hggpdfsmrel_GG2H_2018_THQHadronicTag_13TeV'
p208
aS'wsig_13TeV:hggpdfsmrel_THQ_2018_THQHadronicTag_13TeV'
p209
aS'wsig_13TeV:hggpdfsmrel_TTH_2018_THQHadronicTag_13TeV'
p210
aS'wsig_13TeV:hggpdfsmrel_VBF_2018_THQHadronicTag_13TeV'
p211
aS'wsig_13TeV:hggpdfsmrel_VH_2018_THQHadronicTag_13TeV'
p212
aS'multipdf:CMS_hgg_THQHadronicTag_13TeV_bkgshape'
p213
aS'multipdf:roohist_data_mass_THQHadronicTag'
p214
aF0.01955377364697597
aF0.003228069762447716
aF0.04295673513024045
aF0.001079663008601628
aF0.004006221189918335
aF0.015640002578948042
aF0.00418426904183633
aF0.04750041722900278
aF0.0016592816846241476
aF0.006690776908726548
aF0.017558855175593635
aF0.004649087974659238
aF0.05496721073564004
aF0.0017360654846925172
aF0.00646053058335383
ag150
ag150
aF9.365479648298065e-06
aF2.993927658522097e-10
aF3.556400217876191e-06
aF2.3172264304163566e-07
aF4.685560540581783e-07
aF3.510636716481203e-06
aF3.9818147714893843e-10
aF1.492250173032046e-06
aF1.4829393062955893e-07
aF3.9270102761859524e-07
aF4.913862367467897e-06
aF4.815994720318858e-10
aF2.0442938609768567e-06
aF1.9712676240343766e-07
aF4.926655640679903e-07
ag150
ag150
aF0.027687693429961822
aF0.0034441881463025724
aF0.045390966625953565
aF0.0010486568993598913
aF0.004254556989653311
aF0.019119236144649467
aF0.004111862497729348
aF0.044440006836502226
aF0.0016131832380551665
aF0.006090482592628403
aF0.02089956063994583
aF0.004279713898743795
aF0.046457573127478405
aF0.0013984251472217264
aF0.005610028039889089
ag150
ag150
aF0.019554085776541667
aF0.0032281392334165926
aF0.04295774295152117
aF0.0010796903262172825
aF0.004006330200981549
aF0.015749295491782455
aF0.0042123129714211
aF0.04782070781091171
aF0.0016716334685715215
aF0.006736195729389293
aF0.017559180442749418
aF0.0046491804098825916
aF0.05496838245107378
aF0.0017360944063576837
aF0.00646065599822313
ag150
ag150
aF0.019553461322923314
aF0.003228000219442107
aF0.042955726398556666
aF0.001079635685115731
aF0.004006112049228707
aF0.015531091857784134
aF0.0041563196700314204
aF0.04718121267436812
aF0.0016469762209031888
aF0.006645512836883443
aF0.01755852941034196
aF0.004648995440885448
aF0.05496603782925606
aF0.0017360365377764148
aF0.006460404987359477
ag150
ag150
aF0.019599472321150564
aF0.00323789172131643
aF0.04308995486623829
aF0.001082989734998153
aF0.004020356306840717
aF0.015855225848993078
aF0.00425073002601581
aF0.04823668175422606
aF0.001676854545685592
aF0.006788733719647422
aF0.01768391520158331
aF0.004686085127614268
aF0.055388360957996347
aF0.0017507444641842618
aF0.006513103399631943
ag150
ag150
aF0.019508125854380297
aF0.0032182656599511555
aF0.042823752365808244
aF0.0010763487127192486
aF0.0039921207973869135
aF0.015426176077591919
aF0.004118324047498148
aF0.046769705980700405
aF0.001641811518427605
aF0.006593384593334347
aF0.017434222897573824
aF0.004612244609232315
aF0.054547726866709154
aF0.0017214550466436817
aF0.00640820066582167
ag150
ag150
aF0.01958384437783267
aF0.003234746281495624
aF0.04304948151228771
aF0.0010825135440367729
aF0.004015060589597732
aF0.01567905716742624
aF0.004196555090127919
aF0.047634827224233116
aF0.0016618979460513296
aF0.006712105324063771
aF0.017583531246344403
aF0.0046573723307469315
aF0.055061027927025046
aF0.0017394198700375273
aF0.006472386763904973
ag150
ag150
aF0.019523724100545866
aF0.0032214002874556605
aF0.042864093615061494
aF0.0010768162892064329
aF0.003997392788258839
aF0.015600991762113898
aF0.0041720016969531626
aF0.047366191929903864
aF0.001656668014934397
aF0.006669483356340266
aF0.01753419194934274
aF0.004640811369192076
aF0.054873475783486975
aF0.0017327142043931216
aF0.006448686880096464
ag150
ag150
aF0.019593318428502243
aF0.003235136933402995
aF0.0430508561958771
aF0.0010834498391060774
aF0.004014168815602209
aF0.015674830469717096
aF0.004195469597281253
aF0.04762796957783756
aF0.0016632201025042926
aF0.006708987057612685
aF0.017596187155866912
aF0.004659906413061934
aF0.05509317547399347
aF0.0017397548354973072
aF0.006475633820066328
ag150
ag150
aF0.019514269131448055
aF0.0032210103161473638
aF0.04286271797218433
aF0.001075881745455081
aF0.00399828157914101
aF0.015605211358123042
aF0.004173083314703382
aF0.04737303243044376
aF0.0016553473180193766
aF0.006672591414285537
aF0.01752156264169581
aF0.004638282036360278
aF0.0548413899628471
aF0.0017323799521245453
aF0.006445444182749054
ag150
ag150
aF0.01955377364697597
aF0.003228069762447716
aF0.04295673513024045
aF0.001079663008601628
aF0.004006221189918335
aF0.015640002578948042
aF0.00418426904183633
aF0.04750041722900278
aF0.0016592816846241476
aF0.006690776908726548
aF0.017558855175593635
aF0.004649087974659238
aF0.05496721073564004
aF0.0017360654846925172
aF0.00646053058335383
ag150
ag150
aF0.01955377364697597
aF0.003228069762447716
aF0.04295673513024045
aF0.001079663008601628
aF0.004006221189918335
aF0.015640002578948042
aF0.00418426904183633
aF0.04750041722900278
aF0.0016592816846241476
aF0.006690776908726548
aF0.017558855175593635
aF0.004649087974659238
aF0.05496721073564004
aF0.0017360654846925172
aF0.00646053058335383
ag150
ag150
aF0.01955377364697597
aF0.003228069762447716
aF0.04295673513024045
aF0.001079663008601628
aF0.004006221189918335
aF0.015640002578948042
aF0.00418426904183633
aF0.04750041722900278
aF0.0016592816846241476
aF0.006690776908726548
aF0.017558855175593635
aF0.004649087974659238
aF0.05496721073564004
aF0.0017360654846925172
aF0.00646053058335383
ag150
ag150
aF0.01955377364697597
aF0.003228069762447716
aF0.04295673513024045
aF0.001079663008601628
aF0.004006221189918335
aF0.015640002578948042
aF0.00418426904183633
aF0.04750041722900278
aF0.0016592816846241476
aF0.006690776908726548
aF0.017558855175593635
aF0.004649087974659238
aF0.05496721073564004
aF0.0017360654846925172
aF0.00646053058335383
ag150
ag150
aF0.01955377364697597
aF0.003228069762447716
aF0.04295673513024045
aF0.001079663008601628
aF0.004006221189918335
aF0.015640002578948042
aF0.00418426904183633
aF0.04750041722900278
aF0.0016592816846241476
aF0.006690776908726548
aF0.017558855175593635
aF0.004649087974659238
aF0.05496721073564004
aF0.0017360654846925172
aF0.00646053058335383
ag150
ag150
aF0.01955377364697597
aF0.003228069762447716
aF0.04295673513024045
aF0.001079663008601628
aF0.004006221189918335
aF0.015640002578948042
aF0.00418426904183633
aF0.04750041722900278
aF0.0016592816846241476
aF0.006690776908726548
aF0.017558855175593635
aF0.004649087974659238
aF0.05496721073564004
aF0.0017360654846925172
aF0.00646053058335383
ag150
ag150
aF0.01955377364697597
aF0.003228069762447716
aF0.04295673513024045
aF0.001079663008601628
aF0.004006221189918335
aF0.015640002578948042
aF0.00418426904183633
aF0.04750041722900278
aF0.0016592816846241476
aF0.006690776908726548
aF0.017558855175593635
aF0.004649087974659238
aF0.05496721073564004
aF0.0017360654846925172
aF0.00646053058335383
ag150
ag150
aF0.01955377364697597
aF0.003228069762447716
aF0.04295673513024045
aF0.001079663008601628
aF0.004006221189918335
aF0.015640002578948042
aF0.00418426904183633
aF0.04750041722900278
aF0.0016592816846241476
aF0.006690776908726548
aF0.017558855175593635
aF0.004649087974659238
aF0.05496721073564004
aF0.0017360654846925172
aF0.00646053058335383
ag150
ag150
aF0.019421453689696944
aF0.003253838689511186
aF0.04328925201683067
aF0.0010202251380646294
aF0.003973505369882389
aF0.015464980329768903
aF0.004170800354180741
aF0.047198313232391126
aF0.0016375964613853924
aF0.0066366749473517955
aF0.01719683687950231
aF0.004647444201286861
aF0.05492405435911793
aF0.0017319134098472027
aF0.0064114997069235164
ag150
ag150
aF0.019599433769938744
aF0.0032097450326961496
aF0.042760597694509524
aF0.0011351854153524626
aF0.004049374472742274
aF0.015941765860608196
aF0.0042102843626066425
aF0.0480048747538389
aF0.0017064302740449331
aF0.006789654528967361
aF0.01806233051923001
aF0.004698891781338807
aF0.05573560124493461
aF0.0017852214601103717
aF0.00660078724779451
ag150
ag150
aF0.026745401017933546
aF0.003227926646262147
aF0.0429577267686847
aF0.001079663008601628
aF0.004006221189918335
aF0.022208385293197352
aF0.004184352969872407
aF0.04747260946305687
aF0.0016592816846241476
aF0.006690776908726548
aF0.025704450057673967
aF0.0046492843982157694
aF0.05495455716049946
aF0.0017360654846925172
aF0.00646053058335383
ag150
ag150
aF0.026745401017933546
aF0.0032278424809687456
aF0.04295673513024045
aF0.001079663008601628
aF0.004006221189918335
aF0.022208385293197352
aF0.004184435504043904
aF0.04748223183969458
aF0.0016592816846241476
aF0.006690776908726548
aF0.025704450057673967
aF0.004649189274669396
aF0.05495276497299528
aF0.0017360654846925172
aF0.00646053058335383
ag150
ag150
aF0.026120993360336797
aF0.0032961943502876415
aF0.044895842402222996
aF0.0010192646863824706
aF0.004268522670805908
aF0.022563828220881987
aF0.004282885818177817
aF0.04937151650437954
aF0.001663303560235363
aF0.0067693145992961945
aF0.026876882071519503
aF0.004800806194936058
aF0.0573786225565982
aF0.0018382828411631635
aF0.006885015313855547
ag150
ag150
aF0.0261957268239712
aF0.003152718632472396
aF0.04085512565196847
aF0.0008820792663808419
aF0.004080520554403222
aF0.022258976969169453
aF0.00408476032196603
aF0.045449207780166034
aF0.0015835363474252517
aF0.006620696673053317
aF0.02472854224834009
aF0.004477596457299171
aF0.05220536971978618
aF0.0016235165912803495
aF0.0059972831350023625
ag150
ag150
aF0.026745401017933546
aF0.0032281822865071197
aF0.04297867499098462
aF0.001079663008601628
aF0.004006221189918335
aF0.022208385293197352
aF0.004184499884537729
aF0.04749050721466119
aF0.0016592816846241476
aF0.006690776908726548
aF0.025704450057673967
aF0.004649278324190931
aF0.05496721073564004
aF0.0017360654846925172
aF0.00646053058335383
ag150
ag150
aF0.026745401017933546
aF0.003227875921262835
aF0.043002197496201156
aF0.001079663008601628
aF0.004006221189918335
aF0.022208385293197352
aF0.004184342942494368
aF0.04747875829298209
aF0.0016592816846241476
aF0.006690776908726548
aF0.025704450057673967
aF0.0046492843982157694
aF0.054961154327656914
aF0.0017360654846925172
aF0.00646053058335383
ag150
ag150
aF0.025831963374230327
aF0.003378497112460993
aF0.044238015549504794
aF0.0013664703429281388
aF0.004583367359920487
aF0.026500627864152193
aF0.004480025256246023
aF0.04942726967146882
aF0.001991587366319436
aF0.00797989544844313
aF0.03016853065128089
aF0.0049051459036633105
aF0.05725207450018388
aF0.0021883115177843138
aF0.006968256323489186
ag150
ag150
aF0.023259509689637525
aF0.0030728382646556737
aF0.041463392292613754
aF0.000420410596921883
aF0.0038197415248006905
aF0.019345913067809306
aF0.0039127981095035125
aF0.044985834550061554
aF0.0012231793843966443
aF0.005975904255137721
aF0.02515724553813925
aF0.004374025729784847
aF0.05392609601176446
aF0.001525798827969993
aF0.005994934888803982
ag150
ag150
aF0.027490631445516556
aF0.0032588544777571414
aF0.04260216059428412
aF0.000982824265703286
aF0.004076118412335461
aF0.023280168359633535
aF0.004220781022198139
aF0.04769642118162665
aF0.0017204452042278717
aF0.007314616499570548
aF0.028499506388470763
aF0.004660554154529706
aF0.05550671083005909
aF0.0016440876015622052
aF0.006786154125620669
ag150
ag150
aF0.024772199675339834
aF0.003198708877097292
aF0.04306157952662382
aF0.0008191603224414479
aF0.004124859929810043
aF0.02256160213437397
aF0.004141070956940496
aF0.04689184034896243
aF0.0015630265552317724
aF0.006474264725511603
aF0.023969030818989268
aF0.004614558988777162
aF0.05508276345312879
aF0.0018165634483011672
aF0.006430431166336348
ag150
ag150
aF0.026745401017933546
aF0.0032299215375196783
aF0.043109908169843614
aF0.0011131709798402056
aF0.00396695518589496
aF0.022342083662806544
aF0.004188501294603242
aF0.04750487109140522
aF0.001549711213556293
aF0.006657581930994638
aF0.026000759989983635
aF0.004655246558598947
aF0.055088766891685736
aF0.0017222135529664229
aF0.006417828644771362
ag150
ag150
aF0.026745401017933546
aF0.0032267163781721786
aF0.04281551922176963
aF0.0011211408746358842
aF0.004041409023336939
aF0.022192534364876337
aF0.004179480349712605
aF0.04754115200967135
aF0.0016755532451497857
aF0.006731654377290397
aF0.02610621021813131
aF0.00464154406610362
aF0.05479178800646878
aF0.001739274188366835
aF0.006558810444403207
ag150
ag150
aF0.026745401017933546
aF0.0032275581539912383
aF0.04277660378311854
aF0.001079663008601628
aF0.003970354356859218
aF0.022176848789968062
aF0.004185549290724566
aF0.04752923258092778
aF0.0016783548562671058
aF0.006748077994416235
aF0.025928042628947878
aF0.004648328195319351
aF0.05498894209245009
aF0.0017493207960797008
aF0.006510962295578793
ag150
ag150
aF0.026745401017933546
aF0.00322781359654703
aF0.043013068612347105
aF0.0011211408746358842
aF0.004006221189918335
aF0.022205030341865495
aF0.0041839755970300985
aF0.04760183207281443
aF0.0015953737183735939
aF0.006690606782285613
aF0.025734430175361922
aF0.004646853203663426
aF0.05497034513496146
aF0.0017360654846925172
aF0.006398486690159189
ag150
ag150
aF0.027007360928791968
aF0.0032275297035647132
aF0.04289826559696497
aF0.0010868813165298974
aF0.0040046827396125195
aF0.022177718696184456
aF0.00418529044970839
aF0.0476989652197517
aF0.001673400337494968
aF0.006777233536922722
aF0.025881064862915082
aF0.004650535662534594
aF0.05472462635293596
aF0.0017274060837735306
aF0.006492549620816135
ag150
ag150
aF0.02689409632944262
aF0.0032278373241912788
aF0.0431081251756078
aF0.0011437645884431191
aF0.004066280909462705
aF0.022361984083545394
aF0.004185599322298117
aF0.04756156747089335
aF0.0015351847769125015
aF0.006776744645321742
aF0.02634570058216923
aF0.004648464847374356
aF0.05486602863743428
aF0.0017290754076384474
aF0.006574184388227877
ag150
ag150
atp215
ba(lp216
g15
(g16
(dp217
g18
g19
(g20
(I0
tp218
g22
tp219
Rp220
(I1
(I1
tp221
g29
I00
(lp222
g43
atp223
bsg82
Nstp224
Rp225
ag15
(g16
(dp226
g18
g19
(g20
(I0
tp227
g22
tp228
Rp229
(I1
(I47
tp230
g29
I00
(lp231
g33
ag34
ag35
ag36
ag37
ag38
ag39
ag40
ag41
ag42
ag44
ag45
ag46
ag47
ag48
ag49
ag50
ag51
ag52
ag53
ag54
ag55
ag56
ag57
ag58
ag59
ag60
ag61
ag62
ag63
ag64
ag65
ag66
ag67
ag68
ag69
ag70
ag71
ag72
ag73
ag74
ag75
ag76
ag77
ag78
ag79
ag80
atp232
bsg82
Nstp233
Rp234
a(dp235
S'0.14.1'
p236
(dp237
S'axes'
p238
g14
sS'blocks'
p239
(lp240
(dp241
S'mgr_locs'
p242
c__builtin__
slice
p243
(I10
I11
I1
tp244
Rp245
sS'values'
p246
g103
sa(dp247
g242
g19
(g20
(I0
tp248
g22
tp249
Rp250
(I1
(I47
tp251
g93
I00
S'\x00\x00\x00\x00\x00\x00\x00\x00\x01\x00\x00\x00\x00\x00\x00\x00\x02\x00\x00\x00\x00\x00\x00\x00\x03\x00\x00\x00\x00\x00\x00\x00\x04\x00\x00\x00\x00\x00\x00\x00\x05\x00\x00\x00\x00\x00\x00\x00\x06\x00\x00\x00\x00\x00\x00\x00\x07\x00\x00\x00\x00\x00\x00\x00\x08\x00\x00\x00\x00\x00\x00\x00\t\x00\x00\x00\x00\x00\x00\x00\x0b\x00\x00\x00\x00\x00\x00\x00\x0c\x00\x00\x00\x00\x00\x00\x00\r\x00\x00\x00\x00\x00\x00\x00\x0e\x00\x00\x00\x00\x00\x00\x00\x0f\x00\x00\x00\x00\x00\x00\x00\x10\x00\x00\x00\x00\x00\x00\x00\x11\x00\x00\x00\x00\x00\x00\x00\x12\x00\x00\x00\x00\x00\x00\x00\x13\x00\x00\x00\x00\x00\x00\x00\x14\x00\x00\x00\x00\x00\x00\x00\x15\x00\x00\x00\x00\x00\x00\x00\x16\x00\x00\x00\x00\x00\x00\x00\x17\x00\x00\x00\x00\x00\x00\x00\x18\x00\x00\x00\x00\x00\x00\x00\x19\x00\x00\x00\x00\x00\x00\x00\x1a\x00\x00\x00\x00\x00\x00\x00\x1b\x00\x00\x00\x00\x00\x00\x00\x1c\x00\x00\x00\x00\x00\x00\x00\x1d\x00\x00\x00\x00\x00\x00\x00\x1e\x00\x00\x00\x00\x00\x00\x00\x1f\x00\x00\x00\x00\x00\x00\x00 \x00\x00\x00\x00\x00\x00\x00!\x00\x00\x00\x00\x00\x00\x00"\x00\x00\x00\x00\x00\x00\x00#\x00\x00\x00\x00\x00\x00\x00$\x00\x00\x00\x00\x00\x00\x00%\x00\x00\x00\x00\x00\x00\x00&\x00\x00\x00\x00\x00\x00\x00\'\x00\x00\x00\x00\x00\x00\x00(\x00\x00\x00\x00\x00\x00\x00)\x00\x00\x00\x00\x00\x00\x00*\x00\x00\x00\x00\x00\x00\x00+\x00\x00\x00\x00\x00\x00\x00,\x00\x00\x00\x00\x00\x00\x00-\x00\x00\x00\x00\x00\x00\x00.\x00\x00\x00\x00\x00\x00\x00/\x00\x00\x00\x00\x00\x00\x00'
p252
tp253
bsg246
g114
sasstp254
bsb.