ccopy_reg
_reconstructor
p0
(cpandas.core.frame
DataFrame
p1
c__builtin__
object
p2
Ntp3
Rp4
(dp5
S'_metadata'
p6
(lp7
sS'_typ'
p8
S'dataframe'
p9
sS'_data'
p10
g0
(cpandas.core.internals
BlockManager
p11
g2
Ntp12
Rp13
((lp14
cpandas.core.indexes.base
_new_Index
p15
(cpandas.core.indexes.base
Index
p16
(dp17
S'data'
p18
cnumpy.core.multiarray
_reconstruct
p19
(cnumpy
ndarray
p20
(I0
tp21
S'b'
p22
tp23
Rp24
(I1
(I46
tp25
cnumpy
dtype
p26
(S'O8'
p27
I0
I1
tp28
Rp29
(I3
S'|'
p30
NNNI-1
I-1
I63
tp31
bI00
(lp32
S'year'
p33
aS'type'
p34
aS'procOriginal'
p35
aS'proc'
p36
aS'proc_s0'
p37
aS'cat'
p38
aS'inputWSFile'
p39
aS'nominalDataName'
p40
aS'modelWSFile'
p41
aS'model'
p42
aS'rate'
p43
aS'nominal_yield'
p44
aS'sumw2'
p45
aS'nominal_yield_COWCorr'
p46
aS'LooseMvaSF_up_yield'
p47
aS'LooseMvaSF_down_yield'
p48
aS'PreselSF_up_yield'
p49
aS'PreselSF_down_yield'
p50
aS'electronVetoSF_up_yield'
p51
aS'electronVetoSF_down_yield'
p52
aS'TriggerWeight_up_yield'
p53
aS'TriggerWeight_down_yield'
p54
aS'MuonIDWeight_up_yield'
p55
aS'MuonIDWeight_down_yield'
p56
aS'MuonIsoWeight_up_yield'
p57
aS'MuonIsoWeight_down_yield'
p58
aS'ElectronIDWeight_up_yield'
p59
aS'ElectronIDWeight_down_yield'
p60
aS'ElectronRecoWeight_up_yield'
p61
aS'ElectronRecoWeight_down_yield'
p62
aS'JetBTagReshapeWeight_up_yield'
p63
aS'JetBTagReshapeWeight_down_yield'
p64
aS'SigmaEOverEShift_up_yield'
p65
aS'SigmaEOverEShift_down_yield'
p66
aS'MvaShift_up_yield'
p67
aS'MvaShift_down_yield'
p68
aS'JEC_up_yield'
p69
aS'JEC_down_yield'
p70
aS'JER_up_yield'
p71
aS'JER_down_yield'
p72
aS'metJecUncertainty_up_yield'
p73
aS'metJecUncertainty_down_yield'
p74
aS'metPhoUncertainty_up_yield'
p75
aS'metPhoUncertainty_down_yield'
p76
aS'metUncUncertainty_up_yield'
p77
aS'metUncUncertainty_down_yield'
p78
atp79
bsS'name'
p80
Nstp81
Rp82
ag15
(cpandas.core.indexes.numeric
Int64Index
p83
(dp84
g18
g19
(g20
(I0
tp85
g22
tp86
Rp87
(I1
(I20
tp88
g26
(S'i8'
p89
I0
I1
tp90
Rp91
(I3
S'<'
p92
NNNI-1
I-1
I0
tp93
bI00
S'\x00\x00\x00\x00\x00\x00\x00\x00\x01\x00\x00\x00\x00\x00\x00\x00\x02\x00\x00\x00\x00\x00\x00\x00\x03\x00\x00\x00\x00\x00\x00\x00\x04\x00\x00\x00\x00\x00\x00\x00\x05\x00\x00\x00\x00\x00\x00\x00\x06\x00\x00\x00\x00\x00\x00\x00\x07\x00\x00\x00\x00\x00\x00\x00\x08\x00\x00\x00\x00\x00\x00\x00\t\x00\x00\x00\x00\x00\x00\x00\n\x00\x00\x00\x00\x00\x00\x00\x0b\x00\x00\x00\x00\x00\x00\x00\x0c\x00\x00\x00\x00\x00\x00\x00\r\x00\x00\x00\x00\x00\x00\x00\x0e\x00\x00\x00\x00\x00\x00\x00\x0f\x00\x00\x00\x00\x00\x00\x00\x10\x00\x00\x00\x00\x00\x00\x00\x11\x00\x00\x00\x00\x00\x00\x00\x12\x00\x00\x00\x00\x00\x00\x00\x13\x00\x00\x00\x00\x00\x00\x00'
p94
tp95
bsg80
Nstp96
Rp97
a(lp98
g19
(g20
(I0
tp99
g22
tp100
Rp101
(I1
(I1
I20
tp102
g26
(S'f8'
p103
I0
I1
tp104
Rp105
(I3
S'<'
p106
NNNI-1
I-1
I0
tp107
bI00
S'\x00\x00\x00\x00@\xbd\xe1@\x00\x00\x00\x00@\xbd\xe1@\x00\x00\x00\x00@\xbd\xe1@\x00\x00\x00\x00@\xbd\xe1@\x00\x00\x00\x00@\xbd\xe1@\x00\x00\x00\x00@\xbd\xe1@\x00\x00\x00\x00\x00A\xe4@\x00\x00\x00\x00\x00A\xe4@\x00\x00\x00\x00\x00A\xe4@\x00\x00\x00\x00\x00A\xe4@\x00\x00\x00\x00\x00A\xe4@\x00\x00\x00\x00\x00A\xe4@\x00\x00\x00\x00\xc06\xed@\x00\x00\x00\x00\xc06\xed@\x00\x00\x00\x00\xc06\xed@\x00\x00\x00\x00\xc06\xed@\x00\x00\x00\x00\xc06\xed@\x00\x00\x00\x00\xc06\xed@\x00\x00\x00\x00\x00\x00\xf0?\x00\x00\x00\x00\x00\x00\xf0\xbf'
p108
tp109
bag19
(g20
(I0
tp110
g22
tp111
Rp112
(I1
(I45
I20
tp113
g29
I00
(lp114
S'2016'
p115
ag115
ag115
ag115
ag115
ag115
aS'2017'
p116
ag116
ag116
ag116
ag116
ag116
aS'2018'
p117
ag117
ag117
ag117
ag117
ag117
aS'merged'
p118
ag118
aS'sig'
p119
ag119
ag119
ag119
ag119
ag119
ag119
ag119
ag119
ag119
ag119
ag119
ag119
ag119
ag119
ag119
ag119
ag119
aS'bkg'
p120
ag18
aS'GG2H'
p121
aS'THQ'
p122
aS'TTH'
p123
aS'Tprime600'
p124
aS'VBF'
p125
aS'VH'
p126
ag121
ag122
ag123
ag124
ag125
ag126
ag121
ag122
ag123
ag124
ag125
ag126
aS'bkg_mass'
p127
aS'data_obs'
p128
aS'ggH_2016_hgg'
p129
aS'tHq_2016_hgg'
p130
aS'ttH_2016_hgg'
p131
aS'TvlqM600_2016_hgg'
p132
aS'qqH_2016_hgg'
p133
aS'VH_2016_hgg'
p134
aS'ggH_2017_hgg'
p135
aS'tHq_2017_hgg'
p136
aS'ttH_2017_hgg'
p137
aS'TvlqM600_2017_hgg'
p138
aS'qqH_2017_hgg'
p139
aS'VH_2017_hgg'
p140
aS'ggH_2018_hgg'
p141
aS'tHq_2018_hgg'
p142
aS'ttH_2018_hgg'
p143
aS'TvlqM600_2018_hgg'
p144
aS'qqH_2018_hgg'
p145
aS'VH_2018_hgg'
p146
ag127
ag128
aS'ggh'
p147
aS'thq'
p148
aS'tth'
p149
aS'TprimeM600'
p150
aS'vbf'
p151
aS'vh'
p152
ag147
ag148
ag149
ag150
ag151
ag152
ag147
ag148
ag149
ag150
ag151
ag152
aS'-'
p153
ag153
aS'THQHadronicTag'
p154
ag154
ag154
ag154
ag154
ag154
ag154
ag154
ag154
ag154
ag154
ag154
ag154
ag154
ag154
ag154
ag154
ag154
ag154
ag154
aS'/eos/user/p/prsaha/Tprime_analysis/FinalFit_inputs/UL/v2/600/2016/output_GluGluHToGG_M125_TuneCP5Down_13TeV-amcatnloFXFX-pythia8_GG2H.root'
p155
aS'/eos/user/p/prsaha/Tprime_analysis/FinalFit_inputs/UL/v2/600/2016/output_THQ_ctcvcp_HToGG_M125_13TeV-madgraph-pythia8_THQ.root'
p156
aS'/eos/user/p/prsaha/Tprime_analysis/FinalFit_inputs/UL/v2/600/2016/output_ttHJetToGG_M125_13TeV_amcatnloFXFX_madspin_pythia8_TTH.root'
p157
aS'/eos/user/p/prsaha/Tprime_analysis/FinalFit_inputs/UL/v2/600/2016/output_TprimeBToTH_Hgg_M125_M-600_LH_TuneCP5_PSweights_13TeV-madgraph_pythia8_Tprime600.root'
p158
aS'/eos/user/p/prsaha/Tprime_analysis/FinalFit_inputs/UL/v2/600/2016/output_VBFHToGG_M125_13TeV_amcatnlo_pythia8_VBF.root'
p159
aS'/eos/user/p/prsaha/Tprime_analysis/FinalFit_inputs/UL/v2/600/2016/output_VHToGG_M125_13TeV_amcatnloFXFX_madspin_pythia8_VH.root'
p160
aS'/eos/user/p/prsaha/Tprime_analysis/FinalFit_inputs/UL/v2/600/2017/output_GluGluHToGG_M125_TuneCP5Down_13TeV-amcatnloFXFX-pythia8_GG2H.root'
p161
aS'/eos/user/p/prsaha/Tprime_analysis/FinalFit_inputs/UL/v2/600/2017/output_THQ_ctcvcp_HToGG_M125_13TeV-madgraph-pythia8_THQ.root'
p162
aS'/eos/user/p/prsaha/Tprime_analysis/FinalFit_inputs/UL/v2/600/2017/output_ttHJetToGG_M125_13TeV_amcatnloFXFX_madspin_pythia8_TTH.root'
p163
aS'/eos/user/p/prsaha/Tprime_analysis/FinalFit_inputs/UL/v2/600/2017/output_TprimeBToTH_Hgg_M125_M-600_LH_TuneCP5_PSweights_13TeV-madgraph_pythia8_Tprime600.root'
p164
aS'/eos/user/p/prsaha/Tprime_analysis/FinalFit_inputs/UL/v2/600/2017/output_VBFHToGG_M125_13TeV_amcatnlo_pythia8_VBF.root'
p165
aS'/eos/user/p/prsaha/Tprime_analysis/FinalFit_inputs/UL/v2/600/2017/output_VHToGG_M125_13TeV_amcatnloFXFX_madspin_pythia8_VH.root'
p166
aS'/eos/user/p/prsaha/Tprime_analysis/FinalFit_inputs/UL/v2/600/2018/output_GluGluHToGG_M125_TuneCP5Down_13TeV-amcatnloFXFX-pythia8_GG2H.root'
p167
aS'/eos/user/p/prsaha/Tprime_analysis/FinalFit_inputs/UL/v2/600/2018/output_THQ_ctcvcp_HToGG_M125_13TeV-madgraph-pythia8_THQ.root'
p168
aS'/eos/user/p/prsaha/Tprime_analysis/FinalFit_inputs/UL/v2/600/2018/output_ttHJetToGG_M125_13TeV_amcatnloFXFX_madspin_pythia8_TTH.root'
p169
aS'/eos/user/p/prsaha/Tprime_analysis/FinalFit_inputs/UL/v2/600/2018/output_TprimeBToTH_Hgg_M125_M-600_LH_TuneCP5_PSweights_13TeV-madgraph_pythia8_Tprime600.root'
p170
aS'/eos/user/p/prsaha/Tprime_analysis/FinalFit_inputs/UL/v2/600/2018/output_VBFHToGG_M125_13TeV_amcatnlo_pythia8_VBF.root'
p171
aS'/eos/user/p/prsaha/Tprime_analysis/FinalFit_inputs/UL/v2/600/2018/output_VHToGG_M125_13TeV_amcatnloFXFX_madspin_pythia8_VH.root'
p172
ag153
ag153
aS'ggh_125_13TeV_THQHadronicTag'
p173
aS'thq_125_13TeV_THQHadronicTag'
p174
aS'tth_125_13TeV_THQHadronicTag'
p175
aS'TprimeM600_125_13TeV_THQHadronicTag'
p176
aS'vbf_125_13TeV_THQHadronicTag'
p177
aS'vh_125_13TeV_THQHadronicTag'
p178
aS'ggh_125_13TeV_THQHadronicTag'
p179
aS'thq_125_13TeV_THQHadronicTag'
p180
aS'tth_125_13TeV_THQHadronicTag'
p181
aS'TprimeM600_125_13TeV_THQHadronicTag'
p182
aS'vbf_125_13TeV_THQHadronicTag'
p183
aS'vh_125_13TeV_THQHadronicTag'
p184
aS'ggh_125_13TeV_THQHadronicTag'
p185
aS'thq_125_13TeV_THQHadronicTag'
p186
aS'tth_125_13TeV_THQHadronicTag'
p187
aS'TprimeM600_125_13TeV_THQHadronicTag'
p188
aS'vbf_125_13TeV_THQHadronicTag'
p189
aS'vh_125_13TeV_THQHadronicTag'
p190
ag153
ag153
aS'./Models_Tprime600/signal/CMS-HGG_sigfit_packaged_Tprime600_THQHadronicTag.root'
p191
aS'./Models_Tprime600/signal/CMS-HGG_sigfit_packaged_Tprime600_THQHadronicTag.root'
p192
aS'./Models_Tprime600/signal/CMS-HGG_sigfit_packaged_Tprime600_THQHadronicTag.root'
p193
aS'./Models_Tprime600/signal/CMS-HGG_sigfit_packaged_Tprime600_THQHadronicTag.root'
p194
aS'./Models_Tprime600/signal/CMS-HGG_sigfit_packaged_Tprime600_THQHadronicTag.root'
p195
aS'./Models_Tprime600/signal/CMS-HGG_sigfit_packaged_Tprime600_THQHadronicTag.root'
p196
aS'./Models_Tprime600/signal/CMS-HGG_sigfit_packaged_Tprime600_THQHadronicTag.root'
p197
aS'./Models_Tprime600/signal/CMS-HGG_sigfit_packaged_Tprime600_THQHadronicTag.root'
p198
aS'./Models_Tprime600/signal/CMS-HGG_sigfit_packaged_Tprime600_THQHadronicTag.root'
p199
aS'./Models_Tprime600/signal/CMS-HGG_sigfit_packaged_Tprime600_THQHadronicTag.root'
p200
aS'./Models_Tprime600/signal/CMS-HGG_sigfit_packaged_Tprime600_THQHadronicTag.root'
p201
aS'./Models_Tprime600/signal/CMS-HGG_sigfit_packaged_Tprime600_THQHadronicTag.root'
p202
aS'./Models_Tprime600/signal/CMS-HGG_sigfit_packaged_Tprime600_THQHadronicTag.root'
p203
aS'./Models_Tprime600/signal/CMS-HGG_sigfit_packaged_Tprime600_THQHadronicTag.root'
p204
aS'./Models_Tprime600/signal/CMS-HGG_sigfit_packaged_Tprime600_THQHadronicTag.root'
p205
aS'./Models_Tprime600/signal/CMS-HGG_sigfit_packaged_Tprime600_THQHadronicTag.root'
p206
aS'./Models_Tprime600/signal/CMS-HGG_sigfit_packaged_Tprime600_THQHadronicTag.root'
p207
aS'./Models_Tprime600/signal/CMS-HGG_sigfit_packaged_Tprime600_THQHadronicTag.root'
p208
aS'./Models_Tprime600/background/CMS-HGG_multipdf_THQHadronicTag.root'
p209
ag209
aS'wsig_13TeV:hggpdfsmrel_GG2H_2016_THQHadronicTag_13TeV'
p210
aS'wsig_13TeV:hggpdfsmrel_THQ_2016_THQHadronicTag_13TeV'
p211
aS'wsig_13TeV:hggpdfsmrel_TTH_2016_THQHadronicTag_13TeV'
p212
aS'wsig_13TeV:hggpdfsmrel_Tprime600_2016_THQHadronicTag_13TeV'
p213
aS'wsig_13TeV:hggpdfsmrel_VBF_2016_THQHadronicTag_13TeV'
p214
aS'wsig_13TeV:hggpdfsmrel_VH_2016_THQHadronicTag_13TeV'
p215
aS'wsig_13TeV:hggpdfsmrel_GG2H_2017_THQHadronicTag_13TeV'
p216
aS'wsig_13TeV:hggpdfsmrel_THQ_2017_THQHadronicTag_13TeV'
p217
aS'wsig_13TeV:hggpdfsmrel_TTH_2017_THQHadronicTag_13TeV'
p218
aS'wsig_13TeV:hggpdfsmrel_Tprime600_2017_THQHadronicTag_13TeV'
p219
aS'wsig_13TeV:hggpdfsmrel_VBF_2017_THQHadronicTag_13TeV'
p220
aS'wsig_13TeV:hggpdfsmrel_VH_2017_THQHadronicTag_13TeV'
p221
aS'wsig_13TeV:hggpdfsmrel_GG2H_2018_THQHadronicTag_13TeV'
p222
aS'wsig_13TeV:hggpdfsmrel_THQ_2018_THQHadronicTag_13TeV'
p223
aS'wsig_13TeV:hggpdfsmrel_TTH_2018_THQHadronicTag_13TeV'
p224
aS'wsig_13TeV:hggpdfsmrel_Tprime600_2018_THQHadronicTag_13TeV'
p225
aS'wsig_13TeV:hggpdfsmrel_VBF_2018_THQHadronicTag_13TeV'
p226
aS'wsig_13TeV:hggpdfsmrel_VH_2018_THQHadronicTag_13TeV'
p227
aS'multipdf:CMS_hgg_THQHadronicTag_13TeV_bkgshape'
p228
aS'multipdf:roohist_data_mass_THQHadronicTag'
p229
aF0.0022271764869401522
aF0.0022546993202242245
aF0.008009201728644832
aF0.027881715935404394
aF1.990379274730003e-06
aF0.0004970921344664703
aF0.0018642472959982115
aF0.0024339056009736737
aF0.005474077708640834
aF0.027775389193266165
aF-3.1536686947220005e-05
aF0.0005369360151235014
aF0.0015623882682120893
aF0.0025775778989185483
aF0.0065232435829329916
aF0.029565212875724
aF0.00011849022848764434
aF0.0008883689743015566
ag153
ag153
aF9.269484621270715e-07
aF2.0861033928939036e-10
aF4.883819331644731e-07
aF2.844109173913029e-08
aF3.7358638221954834e-08
aF5.7536887348055084e-08
aF2.0979351279969636e-07
aF2.242533971807286e-10
aF1.5362951981984807e-07
aF2.8669802696536025e-08
aF1.1900412659184458e-08
aF3.6278835804607556e-08
aF2.598847899666664e-07
aF2.571032549706536e-10
aF2.0041138877774114e-07
aF3.270235430128979e-08
aF2.101435695006043e-08
aF4.54872186777714e-08
ag153
ag153
aF0.004391220251111742
aF0.0024013821066561462
aF0.008467502745114416
aF0.02990831573084096
aF1.554034739366779e-05
aF0.00046870115721546674
aF0.0031765705864785
aF0.002453862073475423
aF0.005466042320490508
aF0.027841001618403277
aF-2.0900572884629173e-05
aF0.0005207720184592305
aF0.0024220053936685774
aF0.0024461908204844395
aF0.005984077534320782
aF0.02808345931151621
aF3.818585504446847e-05
aF0.0008396297432735633
ag153
ag153
aF0.0022271547717200623
aF0.002254725674210403
aF0.008009259470994817
aF0.02788205381263826
aF1.9844687667901282e-06
aF0.0004971166811310434
aF0.0018772246759630748
aF0.0024511932571520444
aF0.005512641783687726
aF0.027972912519136667
aF-3.1604330590136765e-05
aF0.000540525903804589
aF0.0015624286402363499
aF0.002577605513058615
aF0.006523343344083708
aF0.029565545975594566
aF0.0001184926913581039
aF0.0008883804745956678
ag153
ag153
aF0.0022271983723516266
aF0.002254672934426466
aF0.008009143910874985
aF0.02788137765030637
aF1.996295736733482e-06
aF0.0004970675721853487
aF0.0018513151768664586
aF0.0024166796662108093
aF0.005435650343657039
aF0.027578570950240085
aF-3.1469033112181664e-05
aF0.000533358358368065
aF0.001562347861552084
aF0.002577550252863612
aF0.0065231437467633
aF0.02956487939309494
aF0.0001184877571380599
aF0.0008883574554703011
ag153
ag153
aF0.002231954099071131
aF0.0022604492827719065
aF0.00803072531843305
aF0.027951219663693072
aF2.014202216763887e-06
aF0.0004982921664932547
aF0.0018927668002415678
aF0.002467143882428354
aF0.005549645311338885
aF0.028159019428728838
aF-3.339621931309038e-05
aF0.000544930534473091
aF0.001571339871628514
aF0.0025959044497157694
aF0.006571811103388932
aF0.029774665835515034
aF0.00011982756664110714
aF0.0008950455452275189
ag153
ag153
aF0.0022223985572364527
aF0.0022489581787621914
aF0.00798771056176733
aF0.027812314020856595
aF1.966425758107739e-06
aF0.0004958935341750695
aF0.0018359281562848715
aF0.002400889354976283
aF0.005399023516697786
aF0.02739433151594547
aF-2.968973674750344e-05
aF0.000528988178113694
aF0.0015534596869619804
aF0.0025593190487480854
aF0.006474861516357568
aF0.029356526327334615
aF0.00011716244382535846
aF0.0008817183287996412
ag153
ag153
aF0.002230314887693335
aF0.002258518074398722
aF0.00802252248855435
aF0.02792849452841094
aF1.8935376714253509e-06
aF0.0004982151263168824
aF0.0018693764503484318
aF0.002439822575032552
aF0.005488277781008496
aF0.027842306052432833
aF-3.208239900461715e-05
aF0.0005383635327576531
aF0.0015643046339501256
aF0.002581256960757752
aF0.006533744913033124
aF0.029607509924350607
aF0.00011880562667287769
aF0.0008895825769703505
ag153
ag153
aF0.002224039682011206
aF0.0022508837930780463
aF0.007995892722301917
aF0.027834975986420787
aF2.0871026560337545e-06
aF0.0004959707338030956
aF0.0018591272469610858
aF0.0024279960219457334
aF0.0054598957486217655
aF0.02770855516073431
aF-3.0992932747820934e-05
aF0.0005355104986127864
aF0.0015604729807445164
aF0.0025739016025939335
aF0.006512750600249026
aF0.02952294747591342
aF0.00011817519998103869
aF0.0008871559573112851
ag153
ag153
aF0.0022345082408183905
aF0.002259425605606458
aF0.008027208849923181
aF0.027940131388665603
aF1.9842953034319557e-06
aF0.0004981381582830544
aF0.0018684260685578396
aF0.002439846827743625
aF0.005487443076784335
aF0.02784253689752094
aF-3.1814842974905494e-05
aF0.0005382355666574389
aF0.001565408041678673
aF0.00258309514599916
aF0.006537077018063209
aF0.02962873529064227
aF0.00011884083846495208
aF0.000890240280290901
ag153
ag153
aF0.00221985485968678
aF0.002249978012250968
aF0.007991214752120713
aF0.027823362438535514
aF1.9964159861484877e-06
aF0.0004960471932471443
aF0.0018600737833254872
aF0.002427971671906745
aF0.005460728812574221
aF0.027708323363496618
aF-3.1259224761475314e-05
aF0.0005356381003194233
aF0.0015593715277834642
aF0.0025720665672807953
aF0.006509424922574773
aF0.02950175881668662
aF0.00011814009821199777
aF0.0008864996539133048
ag153
ag153
aF0.0022271764869401522
aF0.0022546993202242245
aF0.008009201728644832
aF0.027881715935404394
aF1.990379274730003e-06
aF0.0004970921344664703
aF0.0018642472959982115
aF0.0024339056009736737
aF0.005474077708640834
aF0.027775389193266165
aF-3.1536686947220005e-05
aF0.0005369360151235014
aF0.0015623882682120893
aF0.0025775778989185483
aF0.0065232435829329916
aF0.029565212875724
aF0.00011849022848764434
aF0.0008883689743015566
ag153
ag153
aF0.0022271764869401522
aF0.0022546993202242245
aF0.008009201728644832
aF0.027881715935404394
aF1.990379274730003e-06
aF0.0004970921344664703
aF0.0018642472959982115
aF0.0024339056009736737
aF0.005474077708640834
aF0.027775389193266165
aF-3.1536686947220005e-05
aF0.0005369360151235014
aF0.0015623882682120893
aF0.0025775778989185483
aF0.0065232435829329916
aF0.029565212875724
aF0.00011849022848764434
aF0.0008883689743015566
ag153
ag153
aF0.0022271764869401522
aF0.0022546993202242245
aF0.008009201728644832
aF0.027881715935404394
aF1.990379274730003e-06
aF0.0004970921344664703
aF0.0018642472959982115
aF0.0024339056009736737
aF0.005474077708640834
aF0.027775389193266165
aF-3.1536686947220005e-05
aF0.0005369360151235014
aF0.0015623882682120893
aF0.0025775778989185483
aF0.0065232435829329916
aF0.029565212875724
aF0.00011849022848764434
aF0.0008883689743015566
ag153
ag153
aF0.0022271764869401522
aF0.0022546993202242245
aF0.008009201728644832
aF0.027881715935404394
aF1.990379274730003e-06
aF0.0004970921344664703
aF0.0018642472959982115
aF0.0024339056009736737
aF0.005474077708640834
aF0.027775389193266165
aF-3.1536686947220005e-05
aF0.0005369360151235014
aF0.0015623882682120893
aF0.0025775778989185483
aF0.0065232435829329916
aF0.029565212875724
aF0.00011849022848764434
aF0.0008883689743015566
ag153
ag153
aF0.0022271764869401522
aF0.0022546993202242245
aF0.008009201728644832
aF0.027881715935404394
aF1.990379274730003e-06
aF0.0004970921344664703
aF0.0018642472959982115
aF0.0024339056009736737
aF0.005474077708640834
aF0.027775389193266165
aF-3.1536686947220005e-05
aF0.0005369360151235014
aF0.0015623882682120893
aF0.0025775778989185483
aF0.0065232435829329916
aF0.029565212875724
aF0.00011849022848764434
aF0.0008883689743015566
ag153
ag153
aF0.0022271764869401522
aF0.0022546993202242245
aF0.008009201728644832
aF0.027881715935404394
aF1.990379274730003e-06
aF0.0004970921344664703
aF0.0018642472959982115
aF0.0024339056009736737
aF0.005474077708640834
aF0.027775389193266165
aF-3.1536686947220005e-05
aF0.0005369360151235014
aF0.0015623882682120893
aF0.0025775778989185483
aF0.0065232435829329916
aF0.029565212875724
aF0.00011849022848764434
aF0.0008883689743015566
ag153
ag153
aF0.0022271764869401522
aF0.0022546993202242245
aF0.008009201728644832
aF0.027881715935404394
aF1.990379274730003e-06
aF0.0004970921344664703
aF0.0018642472959982115
aF0.0024339056009736737
aF0.005474077708640834
aF0.027775389193266165
aF-3.1536686947220005e-05
aF0.0005369360151235014
aF0.0015623882682120893
aF0.0025775778989185483
aF0.0065232435829329916
aF0.029565212875724
aF0.00011849022848764434
aF0.0008883689743015566
ag153
ag153
aF0.0022271764869401522
aF0.0022546993202242245
aF0.008009201728644832
aF0.027881715935404394
aF1.990379274730003e-06
aF0.0004970921344664703
aF0.0018642472959982115
aF0.0024339056009736737
aF0.005474077708640834
aF0.027775389193266165
aF-3.1536686947220005e-05
aF0.0005369360151235014
aF0.0015623882682120893
aF0.0025775778989185483
aF0.0065232435829329916
aF0.029565212875724
aF0.00011849022848764434
aF0.0008883689743015566
ag153
ag153
aF0.00220910188614878
aF0.0022661064906328203
aF0.00799480581766303
aF0.02800214162584624
aF9.923086995695295e-06
aF0.0004861181468009098
aF0.0018371154137139486
aF0.002422618250688642
aF0.005458728877534344
aF0.027608365096554496
aF-1.7246601144344322e-05
aF0.0005251298917772969
aF0.0015615714060567356
aF0.0025732618499522495
aF0.00646086793316442
aF0.029419859348076696
aF0.00012176954659465146
aF0.0008702853304478366
ag153
ag153
aF0.002239343255372039
aF0.0022468151696688555
aF0.00801633338068409
aF0.02779542673482456
aF-7.213899708537713e-06
aF0.000493487731345541
aF0.001880246599600494
aF0.002448997108843838
aF0.005500384263059756
aF0.027992370868569472
aF-4.198452985283243e-05
aF0.000547321394762622
aF0.0015571286634285004
aF0.0026016268549089996
aF0.006620958405950935
aF0.02991719458652502
aF0.00010718114005530107
aF0.0009040915068570021
ag153
ag153
aF0.004292021219043818
aF0.0022546993202242245
aF0.008009201728644832
aF0.027881715935404394
aF1.990379274730003e-06
aF0.0004970921344664703
aF0.003340381088491995
aF0.0024339056009736737
aF0.005474077708640834
aF0.027775389193266165
aF-3.1536686947220005e-05
aF0.0005369360151235014
aF0.0029718175901507493
aF0.0025775778989185483
aF0.0065232435829329916
aF0.029565212875724
aF0.00011849022848764434
aF0.0008883689743015566
ag153
ag153
aF0.004292021219043818
aF0.0022546993202242245
aF0.008009201728644832
aF0.027881715935404394
aF1.990379274730003e-06
aF0.0004970921344664703
aF0.003340381088491995
aF0.0024339056009736737
aF0.005474077708640834
aF0.027775389193266165
aF-3.1536686947220005e-05
aF0.0005369360151235014
aF0.0029718175901507493
aF0.0025775778989185483
aF0.0065232435829329916
aF0.029565212875724
aF0.00011849022848764434
aF0.0008883689743015566
ag153
ag153
aF0.004847400826292869
aF0.0022798149928171703
aF0.00799360300979135
aF0.028244489828976316
aF3.0469070367189488e-05
aF0.0004935732558095651
aF0.0029794500951538794
aF0.0024719112592421766
aF0.005471198797295074
aF0.028171587092515438
aF-5.056077498011291e-05
aF0.0005127202966832556
aF0.0024930810432124417
aF0.0026421496403408185
aF0.006841274526550478
aF0.03029825061580027
aF0.00010392630065325648
aF0.0008842914112392464
ag153
ag153
aF0.00391544038302527
aF0.0022162455468188354
aF0.0077691571980009755
aF0.02733513102414653
aF7.023630783464796e-05
aF0.0005296272519643708
aF0.00287976571416948
aF0.00239469078922383
aF0.005347983548290358
aF0.027338083716813344
aF-3.534873849275755e-05
aF0.0005495202622114448
aF0.0028836641104135197
aF0.002514582346439198
aF0.006405212612435207
aF0.028813615844370588
aF0.00015742688538011862
aF0.000870403026965505
ag153
ag153
aF0.004242005140440597
aF0.0023404574159270226
aF0.007870388996092714
aF0.02887188851143352
aF0.00028933399281072525
aF0.0005996689723843929
aF0.0030821430555079132
aF0.0025416345270592444
aF0.005377174109526095
aF0.029124343832165778
aF6.814378957642475e-05
aF0.0006391903243638808
aF0.0036717181064886972
aF0.0026786671752603297
aF0.0063308911439889926
aF0.0309933823627091
aF0.0001404989707225468
aF0.0010385869109086343
ag153
ag153
aF0.00461841060223378
aF0.0021542772758765955
aF0.007648535605977891
aF0.026690057935640776
aF6.024083828037874e-05
aF0.0004890378398982875
aF0.0030204402864910662
aF0.0023065788350784544
aF0.005151833649506443
aF0.026114112558190072
aF7.38222570362268e-06
aF0.000455247351055732
aF0.003006752154760761
aF0.0024583748874498212
aF0.006395666801381594
aF0.028003268614668286
aF0.00022291082223091507
aF0.0009355554057037807
ag153
ag153
aF0.0035478382860674174
aF0.002260875371354224
aF0.008049317498574737
aF0.02789136580999485
aF1.6109379231465937e-05
aF0.0005835788332575476
aF0.0030856659141136333
aF0.002426493203685709
aF0.005441315020561888
aF0.02771204308066899
aF9.017246793519007e-05
aF0.0005320284863046254
aF0.0035818391806969885
aF0.0025814938467227933
aF0.006386436515413152
aF0.029534151580804746
aF0.000132897733237769
aF0.0009389839260620647
ag153
ag153
aF0.004221556690936268
aF0.0022506304160223763
aF0.00779879600354505
aF0.027806639100788066
aF-7.936530332131042e-05
aF0.0005425240437517687
aF0.003250465488235932
aF0.002430960454677944
aF0.005489017612489988
aF0.027634514570280544
aF-3.965265932492912e-06
aF0.0005553845940085012
aF0.003086817465373315
aF0.002568414865965707
aF0.006402769891110438
aF0.02945884335738924
aF8.806957157503348e-05
aF0.0008417030403506942
ag153
ag153
aF0.004292021219043818
aF0.002255751352612776
aF0.00790444470189744
aF0.027872929677075553
aF1.990379274730003e-06
aF0.00045945880803799355
aF0.003224659521947615
aF0.0024354798605550343
aF0.005502098405486322
aF0.027801373126010276
aF-3.1536686947220005e-05
aF0.0005193528031668393
aF0.002621885851112893
aF0.00257993193100603
aF0.006531795618911929
aF0.029594406974723597
aF0.0001212612260133028
aF0.0009313628079326008
ag153
ag153
aF0.004531103219960642
aF0.002255786187942605
aF0.007903723670868779
aF0.027889471439562386
aF3.0469070367189488e-05
aF0.0005248388460330489
aF0.003340381088491995
aF0.0024358528841261773
aF0.005520172196611384
aF0.027797691939667857
aF-1.8012266991718207e-05
aF0.0005193528031668393
aF0.0032432068073831033
aF0.0025834937227990906
aF0.006392339093736155
aF0.029549550134021274
aF0.00015447274199686944
aF0.0008883689743015566
ag153
ag153
aF0.004531103219960642
aF0.0022563450189303676
aF0.00795366678344056
aF0.0279217807629924
aF1.990379274730003e-06
aF0.0005248388460330489
aF0.0031158248966676183
aF0.002434451365996182
aF0.005529037259748293
aF0.027811242161646987
aF-3.1536686947220005e-05
aF0.0005369360151235014
aF0.0029718175901507493
aF0.0025809075512235324
aF0.006468503076803245
aF0.02959728319527244
aF0.00013899487566959579
aF0.0009130820753853186
ag153
ag153
aF0.004292021219043818
aF0.0022524317373988807
aF0.007911754526365833
aF0.02785558756616019
aF1.990379274730003e-06
aF0.00045945880803799355
aF0.003340381088491995
aF0.00243279668572427
aF0.0055049909519766516
aF0.027755251229507394
aF-3.1536686947220005e-05
aF0.0004974472467438318
aF0.0029718175901507493
aF0.002575033381397418
aF0.006538327652606313
aF0.029541133642254636
aF0.00014217660918802721
aF0.0008883689743015566
ag153
ag153
aF0.004531103219960642
aF0.002256403369312158
aF0.007877380781654786
aF0.027900786600926708
aF6.811124436012506e-05
aF0.00045945880803799355
aF0.003340381088491995
aF0.002435385019929015
aF0.005494613209066301
aF0.027813528965737078
aF-1.8012266991718207e-05
aF0.0005380242546380032
aF0.0029426470391626935
aF0.002579655876715492
aF0.006460302236291682
aF0.02956709846282024
aF0.00015447274199686944
aF0.0008883689743015566
ag153
ag153
aF0.004292021219043818
aF0.002254545205270495
aF0.007904339561354057
aF0.02787049291253052
aF1.990379274730003e-06
aF0.0005248388460330489
aF0.0031158248966676183
aF0.002433126004845576
aF0.005559635773806804
aF0.027778524140387617
aF-3.1536686947220005e-05
aF0.0005564832772506634
aF0.002940723174106097
aF0.002578376873138666
aF0.0065095152338017215
aF0.02952920132324266
aF0.00013899487566959579
aF0.0009046057393788942
ag153
ag153
atp230
ba(lp231
g15
(g16
(dp232
g18
g19
(g20
(I0
tp233
g22
tp234
Rp235
(I1
(I1
tp236
g29
I00
(lp237
g43
atp238
bsg80
Nstp239
Rp240
ag15
(g16
(dp241
g18
g19
(g20
(I0
tp242
g22
tp243
Rp244
(I1
(I45
tp245
g29
I00
(lp246
g33
ag34
ag35
ag36
ag37
ag38
ag39
ag40
ag41
ag42
ag44
ag45
ag46
ag47
ag48
ag49
ag50
ag51
ag52
ag53
ag54
ag55
ag56
ag57
ag58
ag59
ag60
ag61
ag62
ag63
ag64
ag65
ag66
ag67
ag68
ag69
ag70
ag71
ag72
ag73
ag74
ag75
ag76
ag77
ag78
atp247
bsg80
Nstp248
Rp249
a(dp250
S'0.14.1'
p251
(dp252
S'axes'
p253
g14
sS'blocks'
p254
(lp255
(dp256
S'mgr_locs'
p257
c__builtin__
slice
p258
(I10
I11
I1
tp259
Rp260
sS'values'
p261
g101
sa(dp262
g257
g19
(g20
(I0
tp263
g22
tp264
Rp265
(I1
(I45
tp266
g91
I00
S'\x00\x00\x00\x00\x00\x00\x00\x00\x01\x00\x00\x00\x00\x00\x00\x00\x02\x00\x00\x00\x00\x00\x00\x00\x03\x00\x00\x00\x00\x00\x00\x00\x04\x00\x00\x00\x00\x00\x00\x00\x05\x00\x00\x00\x00\x00\x00\x00\x06\x00\x00\x00\x00\x00\x00\x00\x07\x00\x00\x00\x00\x00\x00\x00\x08\x00\x00\x00\x00\x00\x00\x00\t\x00\x00\x00\x00\x00\x00\x00\x0b\x00\x00\x00\x00\x00\x00\x00\x0c\x00\x00\x00\x00\x00\x00\x00\r\x00\x00\x00\x00\x00\x00\x00\x0e\x00\x00\x00\x00\x00\x00\x00\x0f\x00\x00\x00\x00\x00\x00\x00\x10\x00\x00\x00\x00\x00\x00\x00\x11\x00\x00\x00\x00\x00\x00\x00\x12\x00\x00\x00\x00\x00\x00\x00\x13\x00\x00\x00\x00\x00\x00\x00\x14\x00\x00\x00\x00\x00\x00\x00\x15\x00\x00\x00\x00\x00\x00\x00\x16\x00\x00\x00\x00\x00\x00\x00\x17\x00\x00\x00\x00\x00\x00\x00\x18\x00\x00\x00\x00\x00\x00\x00\x19\x00\x00\x00\x00\x00\x00\x00\x1a\x00\x00\x00\x00\x00\x00\x00\x1b\x00\x00\x00\x00\x00\x00\x00\x1c\x00\x00\x00\x00\x00\x00\x00\x1d\x00\x00\x00\x00\x00\x00\x00\x1e\x00\x00\x00\x00\x00\x00\x00\x1f\x00\x00\x00\x00\x00\x00\x00 \x00\x00\x00\x00\x00\x00\x00!\x00\x00\x00\x00\x00\x00\x00"\x00\x00\x00\x00\x00\x00\x00#\x00\x00\x00\x00\x00\x00\x00$\x00\x00\x00\x00\x00\x00\x00%\x00\x00\x00\x00\x00\x00\x00&\x00\x00\x00\x00\x00\x00\x00\'\x00\x00\x00\x00\x00\x00\x00(\x00\x00\x00\x00\x00\x00\x00)\x00\x00\x00\x00\x00\x00\x00*\x00\x00\x00\x00\x00\x00\x00+\x00\x00\x00\x00\x00\x00\x00,\x00\x00\x00\x00\x00\x00\x00-\x00\x00\x00\x00\x00\x00\x00'
p267
tp268
bsg261
g112
sasstp269
bsb.