ccopy_reg
_reconstructor
p0
(cpandas.core.frame
DataFrame
p1
c__builtin__
object
p2
Ntp3
Rp4
(dp5
S'_metadata'
p6
(lp7
sS'_typ'
p8
S'dataframe'
p9
sS'_data'
p10
g0
(cpandas.core.internals
BlockManager
p11
g2
Ntp12
Rp13
((lp14
cpandas.core.indexes.base
_new_Index
p15
(cpandas.core.indexes.base
Index
p16
(dp17
S'data'
p18
cnumpy.core.multiarray
_reconstruct
p19
(cnumpy
ndarray
p20
(I0
tp21
S'b'
p22
tp23
Rp24
(I1
(I46
tp25
cnumpy
dtype
p26
(S'O8'
p27
I0
I1
tp28
Rp29
(I3
S'|'
p30
NNNI-1
I-1
I63
tp31
bI00
(lp32
S'year'
p33
aS'type'
p34
aS'procOriginal'
p35
aS'proc'
p36
aS'proc_s0'
p37
aS'cat'
p38
aS'inputWSFile'
p39
aS'nominalDataName'
p40
aS'modelWSFile'
p41
aS'model'
p42
aS'rate'
p43
aS'nominal_yield'
p44
aS'sumw2'
p45
aS'nominal_yield_COWCorr'
p46
aS'LooseMvaSF_up_yield'
p47
aS'LooseMvaSF_down_yield'
p48
aS'PreselSF_up_yield'
p49
aS'PreselSF_down_yield'
p50
aS'electronVetoSF_up_yield'
p51
aS'electronVetoSF_down_yield'
p52
aS'TriggerWeight_up_yield'
p53
aS'TriggerWeight_down_yield'
p54
aS'MuonIDWeight_up_yield'
p55
aS'MuonIDWeight_down_yield'
p56
aS'MuonIsoWeight_up_yield'
p57
aS'MuonIsoWeight_down_yield'
p58
aS'ElectronIDWeight_up_yield'
p59
aS'ElectronIDWeight_down_yield'
p60
aS'ElectronRecoWeight_up_yield'
p61
aS'ElectronRecoWeight_down_yield'
p62
aS'JetBTagReshapeWeight_up_yield'
p63
aS'JetBTagReshapeWeight_down_yield'
p64
aS'SigmaEOverEShift_up_yield'
p65
aS'SigmaEOverEShift_down_yield'
p66
aS'MvaShift_up_yield'
p67
aS'MvaShift_down_yield'
p68
aS'JEC_up_yield'
p69
aS'JEC_down_yield'
p70
aS'JER_up_yield'
p71
aS'JER_down_yield'
p72
aS'metJecUncertainty_up_yield'
p73
aS'metJecUncertainty_down_yield'
p74
aS'metPhoUncertainty_up_yield'
p75
aS'metPhoUncertainty_down_yield'
p76
aS'metUncUncertainty_up_yield'
p77
aS'metUncUncertainty_down_yield'
p78
atp79
bsS'name'
p80
Nstp81
Rp82
ag15
(cpandas.core.indexes.numeric
Int64Index
p83
(dp84
g18
g19
(g20
(I0
tp85
g22
tp86
Rp87
(I1
(I20
tp88
g26
(S'i8'
p89
I0
I1
tp90
Rp91
(I3
S'<'
p92
NNNI-1
I-1
I0
tp93
bI00
S'\x00\x00\x00\x00\x00\x00\x00\x00\x01\x00\x00\x00\x00\x00\x00\x00\x02\x00\x00\x00\x00\x00\x00\x00\x03\x00\x00\x00\x00\x00\x00\x00\x04\x00\x00\x00\x00\x00\x00\x00\x05\x00\x00\x00\x00\x00\x00\x00\x06\x00\x00\x00\x00\x00\x00\x00\x07\x00\x00\x00\x00\x00\x00\x00\x08\x00\x00\x00\x00\x00\x00\x00\t\x00\x00\x00\x00\x00\x00\x00\n\x00\x00\x00\x00\x00\x00\x00\x0b\x00\x00\x00\x00\x00\x00\x00\x0c\x00\x00\x00\x00\x00\x00\x00\r\x00\x00\x00\x00\x00\x00\x00\x0e\x00\x00\x00\x00\x00\x00\x00\x0f\x00\x00\x00\x00\x00\x00\x00\x10\x00\x00\x00\x00\x00\x00\x00\x11\x00\x00\x00\x00\x00\x00\x00\x12\x00\x00\x00\x00\x00\x00\x00\x13\x00\x00\x00\x00\x00\x00\x00'
p94
tp95
bsg80
Nstp96
Rp97
a(lp98
g19
(g20
(I0
tp99
g22
tp100
Rp101
(I1
(I1
I20
tp102
g26
(S'f8'
p103
I0
I1
tp104
Rp105
(I3
S'<'
p106
NNNI-1
I-1
I0
tp107
bI00
S'\x00\x00\x00\x00@\xbd\xe1@\x00\x00\x00\x00@\xbd\xe1@\x00\x00\x00\x00@\xbd\xe1@\x00\x00\x00\x00@\xbd\xe1@\x00\x00\x00\x00@\xbd\xe1@\x00\x00\x00\x00@\xbd\xe1@\x00\x00\x00\x00\x00A\xe4@\x00\x00\x00\x00\x00A\xe4@\x00\x00\x00\x00\x00A\xe4@\x00\x00\x00\x00\x00A\xe4@\x00\x00\x00\x00\x00A\xe4@\x00\x00\x00\x00\x00A\xe4@\x00\x00\x00\x00\xc06\xed@\x00\x00\x00\x00\xc06\xed@\x00\x00\x00\x00\xc06\xed@\x00\x00\x00\x00\xc06\xed@\x00\x00\x00\x00\xc06\xed@\x00\x00\x00\x00\xc06\xed@\x00\x00\x00\x00\x00\x00\xf0?\x00\x00\x00\x00\x00\x00\xf0\xbf'
p108
tp109
bag19
(g20
(I0
tp110
g22
tp111
Rp112
(I1
(I45
I20
tp113
g29
I00
(lp114
S'2016'
p115
ag115
ag115
ag115
ag115
ag115
aS'2017'
p116
ag116
ag116
ag116
ag116
ag116
aS'2018'
p117
ag117
ag117
ag117
ag117
ag117
aS'merged'
p118
ag118
aS'sig'
p119
ag119
ag119
ag119
ag119
ag119
ag119
ag119
ag119
ag119
ag119
ag119
ag119
ag119
ag119
ag119
ag119
ag119
aS'bkg'
p120
ag18
aS'GG2H'
p121
aS'THQ'
p122
aS'TTH'
p123
aS'Tprime1100'
p124
aS'VBF'
p125
aS'VH'
p126
ag121
ag122
ag123
ag124
ag125
ag126
ag121
ag122
ag123
ag124
ag125
ag126
aS'bkg_mass'
p127
aS'data_obs'
p128
aS'ggH_2016_hgg'
p129
aS'tHq_2016_hgg'
p130
aS'ttH_2016_hgg'
p131
aS'TvlqM1100_2016_hgg'
p132
aS'qqH_2016_hgg'
p133
aS'VH_2016_hgg'
p134
aS'ggH_2017_hgg'
p135
aS'tHq_2017_hgg'
p136
aS'ttH_2017_hgg'
p137
aS'TvlqM1100_2017_hgg'
p138
aS'qqH_2017_hgg'
p139
aS'VH_2017_hgg'
p140
aS'ggH_2018_hgg'
p141
aS'tHq_2018_hgg'
p142
aS'ttH_2018_hgg'
p143
aS'TvlqM1100_2018_hgg'
p144
aS'qqH_2018_hgg'
p145
aS'VH_2018_hgg'
p146
ag127
ag128
aS'ggh'
p147
aS'thq'
p148
aS'tth'
p149
aS'TprimeM1100'
p150
aS'vbf'
p151
aS'vh'
p152
ag147
ag148
ag149
ag150
ag151
ag152
ag147
ag148
ag149
ag150
ag151
ag152
aS'-'
p153
ag153
aS'THQLeptonicTag'
p154
ag154
ag154
ag154
ag154
ag154
ag154
ag154
ag154
ag154
ag154
ag154
ag154
ag154
ag154
ag154
ag154
ag154
ag154
ag154
aS'/eos/user/p/prsaha/Tprime_analysis/FinalFit_inputs/UL/v2/1100/2016/output_GluGluHToGG_M125_TuneCP5Down_13TeV-amcatnloFXFX-pythia8_GG2H.root'
p155
aS'/eos/user/p/prsaha/Tprime_analysis/FinalFit_inputs/UL/v2/1100/2016/output_THQ_ctcvcp_HToGG_M125_13TeV-madgraph-pythia8_THQ.root'
p156
aS'/eos/user/p/prsaha/Tprime_analysis/FinalFit_inputs/UL/v2/1100/2016/output_ttHJetToGG_M125_13TeV_amcatnloFXFX_madspin_pythia8_TTH.root'
p157
aS'/eos/user/p/prsaha/Tprime_analysis/FinalFit_inputs/UL/v2/1100/2016/output_TprimeBToTH_Hgg_M125_M-1100_LH_TuneCP5_PSweights_13TeV-madgraph_pythia8_Tprime1100.root'
p158
aS'/eos/user/p/prsaha/Tprime_analysis/FinalFit_inputs/UL/v2/1100/2016/output_VBFHToGG_M125_13TeV_amcatnlo_pythia8_VBF.root'
p159
aS'/eos/user/p/prsaha/Tprime_analysis/FinalFit_inputs/UL/v2/1100/2016/output_VHToGG_M125_13TeV_amcatnloFXFX_madspin_pythia8_VH.root'
p160
aS'/eos/user/p/prsaha/Tprime_analysis/FinalFit_inputs/UL/v2/1100/2017/output_GluGluHToGG_M125_TuneCP5Down_13TeV-amcatnloFXFX-pythia8_GG2H.root'
p161
aS'/eos/user/p/prsaha/Tprime_analysis/FinalFit_inputs/UL/v2/1100/2017/output_THQ_ctcvcp_HToGG_M125_13TeV-madgraph-pythia8_THQ.root'
p162
aS'/eos/user/p/prsaha/Tprime_analysis/FinalFit_inputs/UL/v2/1100/2017/output_ttHJetToGG_M125_13TeV_amcatnloFXFX_madspin_pythia8_TTH.root'
p163
aS'/eos/user/p/prsaha/Tprime_analysis/FinalFit_inputs/UL/v2/1100/2017/output_TprimeBToTH_Hgg_M125_M-1100_LH_TuneCP5_PSweights_13TeV-madgraph_pythia8_Tprime1100.root'
p164
aS'/eos/user/p/prsaha/Tprime_analysis/FinalFit_inputs/UL/v2/1100/2017/output_VBFHToGG_M125_13TeV_amcatnlo_pythia8_VBF.root'
p165
aS'/eos/user/p/prsaha/Tprime_analysis/FinalFit_inputs/UL/v2/1100/2017/output_VHToGG_M125_13TeV_amcatnloFXFX_madspin_pythia8_VH.root'
p166
aS'/eos/user/p/prsaha/Tprime_analysis/FinalFit_inputs/UL/v2/1100/2018/output_GluGluHToGG_M125_TuneCP5Down_13TeV-amcatnloFXFX-pythia8_GG2H.root'
p167
aS'/eos/user/p/prsaha/Tprime_analysis/FinalFit_inputs/UL/v2/1100/2018/output_THQ_ctcvcp_HToGG_M125_13TeV-madgraph-pythia8_THQ.root'
p168
aS'/eos/user/p/prsaha/Tprime_analysis/FinalFit_inputs/UL/v2/1100/2018/output_ttHJetToGG_M125_13TeV_amcatnloFXFX_madspin_pythia8_TTH.root'
p169
aS'/eos/user/p/prsaha/Tprime_analysis/FinalFit_inputs/UL/v2/1100/2018/output_TprimeBToTH_Hgg_M125_M-1100_LH_TuneCP5_PSweights_13TeV-madgraph_pythia8_Tprime1100.root'
p170
aS'/eos/user/p/prsaha/Tprime_analysis/FinalFit_inputs/UL/v2/1100/2018/output_VBFHToGG_M125_13TeV_amcatnlo_pythia8_VBF.root'
p171
aS'/eos/user/p/prsaha/Tprime_analysis/FinalFit_inputs/UL/v2/1100/2018/output_VHToGG_M125_13TeV_amcatnloFXFX_madspin_pythia8_VH.root'
p172
ag153
ag153
aS'ggh_125_13TeV_THQLeptonicTag'
p173
aS'thq_125_13TeV_THQLeptonicTag'
p174
aS'tth_125_13TeV_THQLeptonicTag'
p175
aS'TprimeM1100_125_13TeV_THQLeptonicTag'
p176
aS'vbf_125_13TeV_THQLeptonicTag'
p177
aS'vh_125_13TeV_THQLeptonicTag'
p178
aS'ggh_125_13TeV_THQLeptonicTag'
p179
aS'thq_125_13TeV_THQLeptonicTag'
p180
aS'tth_125_13TeV_THQLeptonicTag'
p181
aS'TprimeM1100_125_13TeV_THQLeptonicTag'
p182
aS'vbf_125_13TeV_THQLeptonicTag'
p183
aS'vh_125_13TeV_THQLeptonicTag'
p184
aS'ggh_125_13TeV_THQLeptonicTag'
p185
aS'thq_125_13TeV_THQLeptonicTag'
p186
aS'tth_125_13TeV_THQLeptonicTag'
p187
aS'TprimeM1100_125_13TeV_THQLeptonicTag'
p188
aS'vbf_125_13TeV_THQLeptonicTag'
p189
aS'vh_125_13TeV_THQLeptonicTag'
p190
ag153
ag153
aS'./Models_Tprime1100/signal/CMS-HGG_sigfit_packaged_Tprime1100_THQLeptonicTag.root'
p191
aS'./Models_Tprime1100/signal/CMS-HGG_sigfit_packaged_Tprime1100_THQLeptonicTag.root'
p192
aS'./Models_Tprime1100/signal/CMS-HGG_sigfit_packaged_Tprime1100_THQLeptonicTag.root'
p193
aS'./Models_Tprime1100/signal/CMS-HGG_sigfit_packaged_Tprime1100_THQLeptonicTag.root'
p194
aS'./Models_Tprime1100/signal/CMS-HGG_sigfit_packaged_Tprime1100_THQLeptonicTag.root'
p195
aS'./Models_Tprime1100/signal/CMS-HGG_sigfit_packaged_Tprime1100_THQLeptonicTag.root'
p196
aS'./Models_Tprime1100/signal/CMS-HGG_sigfit_packaged_Tprime1100_THQLeptonicTag.root'
p197
aS'./Models_Tprime1100/signal/CMS-HGG_sigfit_packaged_Tprime1100_THQLeptonicTag.root'
p198
aS'./Models_Tprime1100/signal/CMS-HGG_sigfit_packaged_Tprime1100_THQLeptonicTag.root'
p199
aS'./Models_Tprime1100/signal/CMS-HGG_sigfit_packaged_Tprime1100_THQLeptonicTag.root'
p200
aS'./Models_Tprime1100/signal/CMS-HGG_sigfit_packaged_Tprime1100_THQLeptonicTag.root'
p201
aS'./Models_Tprime1100/signal/CMS-HGG_sigfit_packaged_Tprime1100_THQLeptonicTag.root'
p202
aS'./Models_Tprime1100/signal/CMS-HGG_sigfit_packaged_Tprime1100_THQLeptonicTag.root'
p203
aS'./Models_Tprime1100/signal/CMS-HGG_sigfit_packaged_Tprime1100_THQLeptonicTag.root'
p204
aS'./Models_Tprime1100/signal/CMS-HGG_sigfit_packaged_Tprime1100_THQLeptonicTag.root'
p205
aS'./Models_Tprime1100/signal/CMS-HGG_sigfit_packaged_Tprime1100_THQLeptonicTag.root'
p206
aS'./Models_Tprime1100/signal/CMS-HGG_sigfit_packaged_Tprime1100_THQLeptonicTag.root'
p207
aS'./Models_Tprime1100/signal/CMS-HGG_sigfit_packaged_Tprime1100_THQLeptonicTag.root'
p208
aS'./Models_Tprime1100/background/CMS-HGG_multipdf_THQLeptonicTag.root'
p209
ag209
aS'wsig_13TeV:hggpdfsmrel_GG2H_2016_THQLeptonicTag_13TeV'
p210
aS'wsig_13TeV:hggpdfsmrel_THQ_2016_THQLeptonicTag_13TeV'
p211
aS'wsig_13TeV:hggpdfsmrel_TTH_2016_THQLeptonicTag_13TeV'
p212
aS'wsig_13TeV:hggpdfsmrel_Tprime1100_2016_THQLeptonicTag_13TeV'
p213
aS'wsig_13TeV:hggpdfsmrel_VBF_2016_THQLeptonicTag_13TeV'
p214
aS'wsig_13TeV:hggpdfsmrel_VH_2016_THQLeptonicTag_13TeV'
p215
aS'wsig_13TeV:hggpdfsmrel_GG2H_2017_THQLeptonicTag_13TeV'
p216
aS'wsig_13TeV:hggpdfsmrel_THQ_2017_THQLeptonicTag_13TeV'
p217
aS'wsig_13TeV:hggpdfsmrel_TTH_2017_THQLeptonicTag_13TeV'
p218
aS'wsig_13TeV:hggpdfsmrel_Tprime1100_2017_THQLeptonicTag_13TeV'
p219
aS'wsig_13TeV:hggpdfsmrel_VBF_2017_THQLeptonicTag_13TeV'
p220
aS'wsig_13TeV:hggpdfsmrel_VH_2017_THQLeptonicTag_13TeV'
p221
aS'wsig_13TeV:hggpdfsmrel_GG2H_2018_THQLeptonicTag_13TeV'
p222
aS'wsig_13TeV:hggpdfsmrel_THQ_2018_THQLeptonicTag_13TeV'
p223
aS'wsig_13TeV:hggpdfsmrel_TTH_2018_THQLeptonicTag_13TeV'
p224
aS'wsig_13TeV:hggpdfsmrel_Tprime1100_2018_THQLeptonicTag_13TeV'
p225
aS'wsig_13TeV:hggpdfsmrel_VBF_2018_THQLeptonicTag_13TeV'
p226
aS'wsig_13TeV:hggpdfsmrel_VH_2018_THQLeptonicTag_13TeV'
p227
aS'multipdf:CMS_hgg_THQLeptonicTag_13TeV_bkgshape'
p228
aS'multipdf:roohist_data_mass_THQLeptonicTag'
p229
aF-0.00013088464038446546
aF0.0011035550727452846
aF0.007141491714582671
aF0.001384207986639449
aF4.53169886363014e-05
aF0.0006621586745154673
aF8.479053576593287e-06
aF0.0013210532272687203
aF0.007513119964642101
aF0.0015376753795273146
aF0.00011175112649652874
aF0.0012728515539492946
aF0.00024549880072299857
aF0.0014512737412140098
aF0.008371504028218624
aF0.0016636496796387235
aF8.342674937011907e-05
aF0.0014389387279152288
ag153
ag153
aF7.89737917682283e-08
aF1.0237089265945424e-10
aF5.621587511587453e-07
aF1.2050523711177473e-10
aF5.793742465602149e-09
aF5.922286939520928e-08
aF7.478250055919376e-08
aF1.170854759122557e-10
aF2.197858554033575e-07
aF7.597245110370883e-11
aF8.242386443574144e-09
aF6.408220314454214e-08
aF4.078817604597336e-08
aF1.3700112023076733e-10
aF2.808193173402153e-07
aF8.795540875152148e-11
aF8.320264163727279e-09
aF8.952651645763852e-08
ag153
ag153
aF-0.00021489020242429347
aF0.0011677894202375952
aF0.0076552149778102456
aF0.0014660706909449543
aF5.8982253816682026e-05
aF0.0007184135415371524
aF4.0340011932872533e-05
aF0.0013791247082163044
aF0.007620222901314357
aF0.0015840523239942896
aF0.00010522107096758617
aF0.0012235484513112142
aF0.0005823672954231083
aF0.001445396025739399
aF0.007846269979690583
aF0.0016221995723871587
aF4.336792543601865e-05
aF0.0011723283698604084
ag153
ag153
aF-0.00013088464038446546
aF0.001103566997811673
aF0.0071415707394416
aF0.0013842193663227236
aF4.531955072059588e-05
aF0.0006621675661922563
aF8.606118621170834e-06
aF0.001330232086895947
aF0.007565300918711779
aF0.00154865782598334
aF0.00011278324865649072
aF0.0012811841327747455
aF0.00024549880072299857
aF0.00145128798411842
aF0.008371572617780787
aF0.001663662737092368
aF8.342557828895476e-05
aF0.0014389565869312427
ag153
ag153
aF-0.00013088464038446546
aF0.0011035431343365066
aF0.007141412622001632
aF0.001384196593520704
aF4.531442284153004e-05
aF0.0006621497739107756
aF8.35257671780914e-06
aF0.0013119066393187041
aF0.00746112194688345
aF0.0015267324986911034
aF0.00011072338314738326
aF0.0012645465820444802
aF0.00024549880072299857
aF0.0014512594838339233
aF0.008371435391701394
aF0.001663636608137132
aF8.342792515659012e-05
aF0.0014389208539643526
ag153
ag153
aF-0.00013117513694632546
aF0.0011068930280778288
aF0.007163848495848528
aF0.0013878906755951383
aF4.570388203027784e-05
aF0.0006636622210092868
aF9.700135921011478e-06
aF0.0013385423809456067
aF0.007612920057381111
aF0.0015574480296853437
aF0.00011224585291399837
aF0.001286236775124119
aF0.0002485405792031803
aF0.00146247658656312
aF0.008435377749348327
aF0.0016757216547754717
aF8.4443700261051e-05
aF0.001451198226980628
ag153
ag153
aF-0.00013059128902459934
aF0.0011002241958498425
aF0.007119183429515089
aF0.0013805323144115895
aF4.4932376931818585e-05
aF0.0006606549740224118
aF7.2701748294335194e-06
aF0.0013036780106133643
aF0.007413956371537217
aF0.00151802780218803
aF0.00011125575746147902
aF0.0012595479453593843
aF0.00024247606198112443
aF0.001440118583816162
aF0.008307901341399254
aF0.001651625624111636
aF8.241599958304629e-05
aF0.0014267339015812343
ag153
ag153
aF-0.00013105832354117815
aF0.0011056094923566136
aF0.007154245170724669
aF0.0013865119003347852
aF4.565611597928754e-05
aF0.000663058580981795
aF9.470788001686813e-06
aF0.0013247227895569148
aF0.007533420605376925
aF0.0015413953559789198
aF0.0001117940083696857
aF0.0012767890885163225
aF0.000246094775502707
aF0.0014536076202239612
aF0.008384568559421343
aF0.0016660512934208158
aF8.367613267178044e-05
aF0.0014419488270021614
ag153
ag153
aF-0.00013071081521517347
aF0.0011015027704565639
aF0.007128749455986965
aF0.0013819061416616588
aF4.497874519899279e-05
aF0.0006612587582186387
aF7.488895425904763e-06
aF0.0013173895856915543
aF0.007492851294059909
aF0.0015339603031423255
aF0.00011170784460237008
aF0.001268921119037151
aF0.00024490355602925653
aF0.00144894205327706
aF0.008358453272146243
aF0.001661250078151402
aF8.31776245162468e-05
aF0.0014359314614349665
ag153
ag153
aF-0.00013114362030696792
aF0.0011058957536675717
aF0.00715663998278669
aF0.0013870748982310309
aF4.54428116445447e-05
aF0.0006635037863201455
aF8.554610093967072e-06
aF0.0013244802466889864
aF0.007531946975914506
aF0.0015414295337515633
aF0.00011188054037663856
aF0.0012766919298126545
aF0.0002462142771981188
aF0.0014544965713787995
aF0.008389423787652225
aF0.0016672326033380824
aF8.365597565285557e-05
aF0.0014422454861530128
ag153
ag153
aF-0.00013062596080875205
aF0.0011012168983682625
aF0.007126359739277027
aF0.0013813440830873407
aF4.5191338742011886e-05
aF0.0006608148979797773
aF8.403665878522908e-06
aF0.0013176306896949032
aF0.007494316283077197
aF0.0015339258585190618
aF0.00011162171273387106
aF0.001269016528286154
aF0.00024478426644949756
aF0.0014480545139639615
aF0.00835360352538938
aF0.0016600706516220166
aF8.319783038334338e-05
aF0.0014356357621233982
ag153
ag153
aF-0.00013277897349068515
aF0.0011095958058965614
aF0.007178348928931542
aF0.0013918181382865148
aF4.5612448947615774e-05
aF0.0006626761290149071
aF8.69632856030294e-06
aF0.001321734256057115
aF0.007518399734827467
aF0.0015384652305810277
aF0.00011238396045706552
aF0.0012732875170511568
aF0.00024794036855515947
aF0.0014550069320421613
aF0.008394782993780278
aF0.0016680992108070193
aF8.301708205253121e-05
aF0.0014425331738581464
ag153
ag153
aF-0.00012899030727824576
aF0.0010975148742994566
aF0.007104627300602727
aF0.001376598444866126
aF4.5021528711344496e-05
aF0.0006616412152726668
aF8.26177649500616e-06
aF0.001320372303720078
aF0.007507840752521568
aF0.001536885598467016
aF0.00011111829700179718
aF0.0012724156367151073
aF0.00024305723393342398
aF0.0014475407852125263
aF0.008348233355477176
aF0.0016592004729549831
aF8.383642209159268e-05
aF0.0014353443078114468
ag153
ag153
aF-0.00013180578081630628
aF0.0011049917796742493
aF0.0071507427968749895
aF0.0013860465488504219
aF4.5459203009474e-05
aF0.0006626094698204586
aF9.544903298214245e-06
aF0.001322462891347246
aF0.007522027184861899
aF0.0015394622768951155
aF0.00011163133295166705
aF0.0012734355884340934
aF0.00024584725898500905
aF0.0014518878133546872
aF0.008376058129687511
aF0.001664395418852388
aF8.361602019586005e-05
aF0.0014393942523028092
ag153
ag153
aF-0.0001299634957444163
aF0.001102118431691945
aF0.007132234297869104
aF0.0013823695040968088
aF4.517477202153286e-05
aF0.0006617078673713782
aF7.413204600681278e-06
aF0.001319643754586548
aF0.007504201861590181
aF0.0015358887331538833
aF0.0001118709298846147
aF0.0012722675023965114
aF0.00024515034444153245
aF0.001450659682418709
aF0.008366951122028897
aF0.0016629039534762312
aF8.323747625456968e-05
aF0.0014384831948700254
ag153
ag153
aF-0.00013271626037189186
aF0.0011119003885512388
aF0.007201801305478084
aF0.0013944861969757785
aF4.581897143920242e-05
aF0.0006663643355034692
aF1.3746811307713557e-05
aF0.0013283644873532724
aF0.0075601227874345835
aF0.0015473241436206237
aF0.0001141875696347855
aF0.0012809866235654176
aF0.00025139966271084206
aF0.001462308660161296
aF0.008483511829006347
aF0.0016777271419147531
aF8.273850360325806e-05
aF0.0014473168291787412
ag153
ag153
aF-0.00012905302039703905
aF0.001095210989617269
aF0.007081226479760699
aF0.0013739354844929995
aF4.481500749929663e-05
aF0.0006579533918492982
aF3.211318031220398e-06
aF0.0013137420897068957
aF0.007466135529968776
aF0.0015280272178815055
aF0.0001093146809239401
aF0.001264721380356397
aF0.00023959792746026118
aF0.0014402398602506397
aF0.008259509214173
aF0.0016495744055218798
aF8.411501109259709e-05
aF0.001430574103138632
ag153
ag153
aF-0.00013259509320164717
aF0.0011067068606801964
aF0.007164493091044902
aF0.0013883300069886875
aF4.622719676171668e-05
aF0.0006660126098073139
aF1.513309953981444e-05
aF0.0013258817840151827
aF0.007556159165062112
aF0.0015437935040316052
aF0.0001157643886585605
aF0.0012777734727744986
aF0.00024876271806635326
aF0.001454365167520092
aF0.008391945096003673
aF0.0016673375442213534
aF8.345904577473687e-05
aF0.0014413879692570968
ag153
ag153
aF-0.00012917422739355705
aF0.001100403509097461
aF0.007118503782380866
aF0.001380086191756864
aF4.4406782293287584e-05
aF0.000658305985653561
aF1.8249845720752375e-06
aF0.001316224908565066
aF0.007470110673459102
aF0.0015315579887644635
aF0.0001077378729102146
aF0.0012679312451285845
aF0.0002422348819096998
aF0.0014481824448537616
aF0.008351064217705203
aF0.0016599620320040121
aF8.33944593168001e-05
aF0.0014364912076893887
ag153
ag153
aF-0.00012882209152606907
aF0.0011038713766300912
aF0.007154501690740189
aF0.0013853674332140987
aF4.628350372119667e-05
aF0.0006584953025882386
aF1.9164255090808572e-05
aF0.0013147216042386722
aF0.007455103403228851
aF0.0015287253355144423
aF0.00011239468763600487
aF0.0012765224799364933
aF0.00024504326360520127
aF0.001446712771585833
aF0.008342795367039796
aF0.0016536971459951652
aF8.199863014595021e-05
aF0.001461603447319842
ag153
ag153
aF-0.00013475279488857188
aF0.001104219126800006
aF0.007149208190388807
aF0.0013840827962755108
aF4.4528674908301546e-05
aF0.0006710004183505041
aF3.2423253582979753e-06
aF0.0013290011835529328
aF0.007585072542399128
aF0.0015492496991363835
aF0.00011473745155971187
aF0.001281372144788518
aF0.00024950222715496484
aF0.0014621602769898507
aF0.008511602253170034
aF0.0016806576095417913
aF8.080497720115934e-05
aF0.001443134552063216
ag153
ag153
aF-0.0001797028526198119
aF0.001097900651882363
aF0.007217677584177906
aF0.0013872193857990787
aF4.53169886363014e-05
aF0.0007007047443607917
aF-3.550748806446791e-05
aF0.0013228707179919752
aF0.007560305624792818
aF0.0015379024380290929
aF0.00014095772803557338
aF168.0
aF161.0
aF0.00144811937206768
aF0.008690870213285962
aF0.0016663476638942853
aF0.00010454325365572004
aF0.0013140686105543864
ag153
ag153
aF-0.0001797028526198119
aF0.0011019014991397492
aF0.00720666961411176
aF0.0013884996035252138
aF4.53169886363014e-05
aF0.0006658030779931323
aF8.164553582901135e-05
aF0.0013186749578899537
aF0.00771126995459781
aF0.0015396050666183214
aF0.00012583157877088524
aF168.0
aF161.0
aF0.0014468616909546483
aF0.008637527218525065
aF0.0016638815907299431
aF0.00010454325365572004
aF0.0014107101987974602
ag153
ag153
aF-0.0001797028526198119
aF0.0011175673871553805
aF0.007384326768230309
aF0.0014011894741103488
aF4.53169886363014e-05
aF0.0006224684942139902
aF8.164553582901135e-05
aF0.0013323626790153753
aF0.007911626422810514
aF0.0015615720835970848
aF0.0001575223932377412
aF168.0
aF161.0
aF0.0014761646624847913
aF0.008766303157244693
aF0.0016948924427371281
aF8.342674937011907e-05
aF0.0014552272432410973
ag153
ag153
aF-0.0001797028526198119
aF0.0010880242433137337
aF0.006887027451297101
aF0.0013697982459025572
aF4.53169886363014e-05
aF0.0006349127737053095
aF-1.1104726581834257e-05
aF0.0012965089220386972
aF0.007107443718723516
aF0.0015165745546088516
aF9.94715101114707e-05
aF168.0
aF161.0
aF0.0014089443202784935
aF0.007832383786535502
aF0.0016176149260758166
aF6.786164613004075e-05
aF0.0013272370115373633
ag153
ag153
aF-0.0001797028526198119
aF0.0011268673673295385
aF0.007799664794742256
aF0.0014049064383077417
aF4.53169886363014e-05
aF0.0005267275687970141
aF0.0005486179870786145
aF0.0013639905437230482
aF0.007772348385060468
aF0.0015718093113417098
aF0.00016322103601851268
aF168.0
aF161.0
aF0.0014945714335006244
aF0.008666318744872115
aF0.001693889401572335
aF7.248902329592966e-05
aF0.001541608302431996
ag153
ag153
aF-0.00017585141176823527
aF0.0010763565050583984
aF0.006634674432895338
aF0.0013682649762172365
aF4.742591949380426e-05
aF0.0004848821205882814
aF7.710521458648145e-05
aF0.001276213158391215
aF0.0073266610797873
aF0.0015030515015048707
aF0.00012268745740584563
aF167.0
aF161.0
aF0.0013969643925726416
aF0.008075851003923162
aF0.0016289879884094915
aF7.227899823192274e-05
aF0.001052340187925438
ag153
ag153
aF-0.0001797028526198119
aF0.0011067843551316008
aF0.007000898174130299
aF0.0013879775280539845
aF4.742591949380426e-05
aF0.0005585540966421831
aF9.390290506416932e-05
aF0.0013243498974482293
aF0.0074476551171756
aF0.0015402385294365217
aF0.00017599749844521284
aF168.0
aF161.0
aF0.0014564751940149279
aF0.008650631503314798
aF0.0016695876935486353
aF5.869241795153357e-05
aF0.0014348105914905318
ag153
ag153
aF-0.00017585141176823527
aF0.0010954186968327832
aF0.00695672107236156
aF0.001381591542239307
aF4.53169886363014e-05
aF0.0006518478633665836
aF-3.62357241101563e-05
aF0.001317004795048149
aF0.007472330110886105
aF0.0015314212029124974
aF0.00014072501562623074
aF169.0
aF161.0
aF0.0014370361007429722
aF0.008442907727840065
aF0.001661671498583317
aF8.48966892590397e-05
aF0.0014370177586897626
ag153
ag153
aF-0.0001797028526198119
aF0.0011001898597610034
aF0.0070128276746412865
aF0.0013877186338710663
aF4.53169886363014e-05
aF0.0006042257774083737
aF0.00018904930038843304
aF0.0013154484864550398
aF0.0073691498473635875
aF0.0015374631485176593
aF0.00014095772803557338
aF168.0
aF161.0
aF0.0014497402175948082
aF0.008763873373482056
aF0.0016642011088947584
aF0.00011176173848070903
aF0.0014161493281790172
ag153
ag153
aF-0.0001797028526198119
aF0.0011028070268376232
aF0.0073995526513481735
aF0.0013903628102860492
aF4.53169886363014e-05
aF0.0006358308092444531
aF-3.550748806446791e-05
aF0.0013223212829061026
aF0.0074358496622153325
aF0.0015362092396333793
aF0.00012583157877088524
aF168.0
aF161.0
aF0.0014524588002728933
aF0.008243369352840091
aF0.00166683865725048
aF8.342674937011907e-05
aF0.0014805174569119117
ag153
ag153
aF-0.0001797028526198119
aF0.0011077533529496551
aF0.00704757370614395
aF0.0013858045541206183
aF4.53169886363014e-05
aF0.0006067128452400539
aF8.164553582901135e-05
aF0.0013261459927491615
aF0.0076161550532560796
aF0.001537591739728228
aF0.00012583157877088524
aF168.0
aF161.0
aF0.0014496620947070937
aF0.008605308680216694
aF0.0016655443554824956
aF8.342674937011907e-05
aF0.0014166480514177238
ag153
ag153
aF-0.0001797028526198119
aF0.001096742080128492
aF0.007095112436656947
aF0.0013870487284391338
aF4.53169886363014e-05
aF0.0006621586745154673
aF8.164553582901135e-05
aF0.0013096144913937735
aF0.007455090883013327
aF0.0015393596502875084
aF0.00015618050565535668
aF168.0
aF161.0
aF0.0014377615391012455
aF0.008508777583756455
aF0.0016693970537264846
aF0.00010454325365572004
aF0.0013177123555578873
ag153
ag153
aF-0.0001797028526198119
aF0.001106168136103456
aF0.006680638804111183
aF0.00138451686810254
aF4.53169886363014e-05
aF0.0006621586745154673
aF8.164553582901135e-05
aF0.0013205950155246171
aF0.007378007377610629
aF0.0015380926064647582
aF0.00014095772803557338
aF167.0
aF161.0
aF0.001448533546753339
aF0.008748698759973195
aF0.0016668376414603614
aF9.646848502598004e-05
aF0.00130143792648596
ag153
ag153
aF-0.00027633934223558754
aF0.001100559798365184
aF0.0073136611117927686
aF0.0013866534695935115
aF4.53169886363014e-05
aF0.0006454849900023873
aF8.164553582901135e-05
aF0.0013161044630436436
aF0.007167884266436886
aF0.0015377638459987963
aF0.00014210005338100018
aF168.0
aF161.0
aF0.00144869370812728
aF0.008582845112414361
aF0.00166695554150742
aF0.00012485512252169428
aF0.0014000511464473675
ag153
ag153
atp230
ba(lp231
g15
(g16
(dp232
g18
g19
(g20
(I0
tp233
g22
tp234
Rp235
(I1
(I1
tp236
g29
I00
(lp237
g43
atp238
bsg80
Nstp239
Rp240
ag15
(g16
(dp241
g18
g19
(g20
(I0
tp242
g22
tp243
Rp244
(I1
(I45
tp245
g29
I00
(lp246
g33
ag34
ag35
ag36
ag37
ag38
ag39
ag40
ag41
ag42
ag44
ag45
ag46
ag47
ag48
ag49
ag50
ag51
ag52
ag53
ag54
ag55
ag56
ag57
ag58
ag59
ag60
ag61
ag62
ag63
ag64
ag65
ag66
ag67
ag68
ag69
ag70
ag71
ag72
ag73
ag74
ag75
ag76
ag77
ag78
atp247
bsg80
Nstp248
Rp249
a(dp250
S'0.14.1'
p251
(dp252
S'axes'
p253
g14
sS'blocks'
p254
(lp255
(dp256
S'mgr_locs'
p257
c__builtin__
slice
p258
(I10
I11
I1
tp259
Rp260
sS'values'
p261
g101
sa(dp262
g257
g19
(g20
(I0
tp263
g22
tp264
Rp265
(I1
(I45
tp266
g91
I00
S'\x00\x00\x00\x00\x00\x00\x00\x00\x01\x00\x00\x00\x00\x00\x00\x00\x02\x00\x00\x00\x00\x00\x00\x00\x03\x00\x00\x00\x00\x00\x00\x00\x04\x00\x00\x00\x00\x00\x00\x00\x05\x00\x00\x00\x00\x00\x00\x00\x06\x00\x00\x00\x00\x00\x00\x00\x07\x00\x00\x00\x00\x00\x00\x00\x08\x00\x00\x00\x00\x00\x00\x00\t\x00\x00\x00\x00\x00\x00\x00\x0b\x00\x00\x00\x00\x00\x00\x00\x0c\x00\x00\x00\x00\x00\x00\x00\r\x00\x00\x00\x00\x00\x00\x00\x0e\x00\x00\x00\x00\x00\x00\x00\x0f\x00\x00\x00\x00\x00\x00\x00\x10\x00\x00\x00\x00\x00\x00\x00\x11\x00\x00\x00\x00\x00\x00\x00\x12\x00\x00\x00\x00\x00\x00\x00\x13\x00\x00\x00\x00\x00\x00\x00\x14\x00\x00\x00\x00\x00\x00\x00\x15\x00\x00\x00\x00\x00\x00\x00\x16\x00\x00\x00\x00\x00\x00\x00\x17\x00\x00\x00\x00\x00\x00\x00\x18\x00\x00\x00\x00\x00\x00\x00\x19\x00\x00\x00\x00\x00\x00\x00\x1a\x00\x00\x00\x00\x00\x00\x00\x1b\x00\x00\x00\x00\x00\x00\x00\x1c\x00\x00\x00\x00\x00\x00\x00\x1d\x00\x00\x00\x00\x00\x00\x00\x1e\x00\x00\x00\x00\x00\x00\x00\x1f\x00\x00\x00\x00\x00\x00\x00 \x00\x00\x00\x00\x00\x00\x00!\x00\x00\x00\x00\x00\x00\x00"\x00\x00\x00\x00\x00\x00\x00#\x00\x00\x00\x00\x00\x00\x00$\x00\x00\x00\x00\x00\x00\x00%\x00\x00\x00\x00\x00\x00\x00&\x00\x00\x00\x00\x00\x00\x00\'\x00\x00\x00\x00\x00\x00\x00(\x00\x00\x00\x00\x00\x00\x00)\x00\x00\x00\x00\x00\x00\x00*\x00\x00\x00\x00\x00\x00\x00+\x00\x00\x00\x00\x00\x00\x00,\x00\x00\x00\x00\x00\x00\x00-\x00\x00\x00\x00\x00\x00\x00'
p267
tp268
bsg261
g112
sasstp269
bsb.