ccopy_reg
_reconstructor
p0
(cpandas.core.frame
DataFrame
p1
c__builtin__
object
p2
Ntp3
Rp4
(dp5
S'_metadata'
p6
(lp7
sS'_typ'
p8
S'dataframe'
p9
sS'_data'
p10
g0
(cpandas.core.internals
BlockManager
p11
g2
Ntp12
Rp13
((lp14
cpandas.core.indexes.base
_new_Index
p15
(cpandas.core.indexes.base
Index
p16
(dp17
S'data'
p18
cnumpy.core.multiarray
_reconstruct
p19
(cnumpy
ndarray
p20
(I0
tp21
S'b'
p22
tp23
Rp24
(I1
(I46
tp25
cnumpy
dtype
p26
(S'O8'
p27
I0
I1
tp28
Rp29
(I3
S'|'
p30
NNNI-1
I-1
I63
tp31
bI00
(lp32
S'year'
p33
aS'type'
p34
aS'procOriginal'
p35
aS'proc'
p36
aS'proc_s0'
p37
aS'cat'
p38
aS'inputWSFile'
p39
aS'nominalDataName'
p40
aS'modelWSFile'
p41
aS'model'
p42
aS'rate'
p43
aS'nominal_yield'
p44
aS'sumw2'
p45
aS'nominal_yield_COWCorr'
p46
aS'LooseMvaSF_up_yield'
p47
aS'LooseMvaSF_down_yield'
p48
aS'PreselSF_up_yield'
p49
aS'PreselSF_down_yield'
p50
aS'electronVetoSF_up_yield'
p51
aS'electronVetoSF_down_yield'
p52
aS'TriggerWeight_up_yield'
p53
aS'TriggerWeight_down_yield'
p54
aS'MuonIDWeight_up_yield'
p55
aS'MuonIDWeight_down_yield'
p56
aS'MuonIsoWeight_up_yield'
p57
aS'MuonIsoWeight_down_yield'
p58
aS'ElectronIDWeight_up_yield'
p59
aS'ElectronIDWeight_down_yield'
p60
aS'ElectronRecoWeight_up_yield'
p61
aS'ElectronRecoWeight_down_yield'
p62
aS'JetBTagReshapeWeight_up_yield'
p63
aS'JetBTagReshapeWeight_down_yield'
p64
aS'SigmaEOverEShift_up_yield'
p65
aS'SigmaEOverEShift_down_yield'
p66
aS'MvaShift_up_yield'
p67
aS'MvaShift_down_yield'
p68
aS'JEC_up_yield'
p69
aS'JEC_down_yield'
p70
aS'JER_up_yield'
p71
aS'JER_down_yield'
p72
aS'metJecUncertainty_up_yield'
p73
aS'metJecUncertainty_down_yield'
p74
aS'metPhoUncertainty_up_yield'
p75
aS'metPhoUncertainty_down_yield'
p76
aS'metUncUncertainty_up_yield'
p77
aS'metUncUncertainty_down_yield'
p78
atp79
bsS'name'
p80
Nstp81
Rp82
ag15
(cpandas.core.indexes.numeric
Int64Index
p83
(dp84
g18
g19
(g20
(I0
tp85
g22
tp86
Rp87
(I1
(I20
tp88
g26
(S'i8'
p89
I0
I1
tp90
Rp91
(I3
S'<'
p92
NNNI-1
I-1
I0
tp93
bI00
S'\x00\x00\x00\x00\x00\x00\x00\x00\x01\x00\x00\x00\x00\x00\x00\x00\x02\x00\x00\x00\x00\x00\x00\x00\x03\x00\x00\x00\x00\x00\x00\x00\x04\x00\x00\x00\x00\x00\x00\x00\x05\x00\x00\x00\x00\x00\x00\x00\x06\x00\x00\x00\x00\x00\x00\x00\x07\x00\x00\x00\x00\x00\x00\x00\x08\x00\x00\x00\x00\x00\x00\x00\t\x00\x00\x00\x00\x00\x00\x00\n\x00\x00\x00\x00\x00\x00\x00\x0b\x00\x00\x00\x00\x00\x00\x00\x0c\x00\x00\x00\x00\x00\x00\x00\r\x00\x00\x00\x00\x00\x00\x00\x0e\x00\x00\x00\x00\x00\x00\x00\x0f\x00\x00\x00\x00\x00\x00\x00\x10\x00\x00\x00\x00\x00\x00\x00\x11\x00\x00\x00\x00\x00\x00\x00\x12\x00\x00\x00\x00\x00\x00\x00\x13\x00\x00\x00\x00\x00\x00\x00'
p94
tp95
bsg80
Nstp96
Rp97
a(lp98
g19
(g20
(I0
tp99
g22
tp100
Rp101
(I1
(I1
I20
tp102
g26
(S'f8'
p103
I0
I1
tp104
Rp105
(I3
S'<'
p106
NNNI-1
I-1
I0
tp107
bI00
S'\x00\x00\x00\x00@\xbd\xe1@\x00\x00\x00\x00@\xbd\xe1@\x00\x00\x00\x00@\xbd\xe1@\x00\x00\x00\x00@\xbd\xe1@\x00\x00\x00\x00@\xbd\xe1@\x00\x00\x00\x00@\xbd\xe1@\x00\x00\x00\x00\x00A\xe4@\x00\x00\x00\x00\x00A\xe4@\x00\x00\x00\x00\x00A\xe4@\x00\x00\x00\x00\x00A\xe4@\x00\x00\x00\x00\x00A\xe4@\x00\x00\x00\x00\x00A\xe4@\x00\x00\x00\x00\xc06\xed@\x00\x00\x00\x00\xc06\xed@\x00\x00\x00\x00\xc06\xed@\x00\x00\x00\x00\xc06\xed@\x00\x00\x00\x00\xc06\xed@\x00\x00\x00\x00\xc06\xed@\x00\x00\x00\x00\x00\x00\xf0?\x00\x00\x00\x00\x00\x00\xf0\xbf'
p108
tp109
bag19
(g20
(I0
tp110
g22
tp111
Rp112
(I1
(I45
I20
tp113
g29
I00
(lp114
S'2016'
p115
ag115
ag115
ag115
ag115
ag115
aS'2017'
p116
ag116
ag116
ag116
ag116
ag116
aS'2018'
p117
ag117
ag117
ag117
ag117
ag117
aS'merged'
p118
ag118
aS'sig'
p119
ag119
ag119
ag119
ag119
ag119
ag119
ag119
ag119
ag119
ag119
ag119
ag119
ag119
ag119
ag119
ag119
ag119
aS'bkg'
p120
ag18
aS'GG2H'
p121
aS'THQ'
p122
aS'TTH'
p123
aS'Tprime600'
p124
aS'VBF'
p125
aS'VH'
p126
ag121
ag122
ag123
ag124
ag125
ag126
ag121
ag122
ag123
ag124
ag125
ag126
aS'bkg_mass'
p127
aS'data_obs'
p128
aS'ggH_2016_hgg'
p129
aS'tHq_2016_hgg'
p130
aS'ttH_2016_hgg'
p131
aS'TvlqM600_2016_hgg'
p132
aS'qqH_2016_hgg'
p133
aS'VH_2016_hgg'
p134
aS'ggH_2017_hgg'
p135
aS'tHq_2017_hgg'
p136
aS'ttH_2017_hgg'
p137
aS'TvlqM600_2017_hgg'
p138
aS'qqH_2017_hgg'
p139
aS'VH_2017_hgg'
p140
aS'ggH_2018_hgg'
p141
aS'tHq_2018_hgg'
p142
aS'ttH_2018_hgg'
p143
aS'TvlqM600_2018_hgg'
p144
aS'qqH_2018_hgg'
p145
aS'VH_2018_hgg'
p146
ag127
ag128
aS'ggh'
p147
aS'thq'
p148
aS'tth'
p149
aS'TprimeM600'
p150
aS'vbf'
p151
aS'vh'
p152
ag147
ag148
ag149
ag150
ag151
ag152
ag147
ag148
ag149
ag150
ag151
ag152
aS'-'
p153
ag153
aS'THQLeptonicTag'
p154
ag154
ag154
ag154
ag154
ag154
ag154
ag154
ag154
ag154
ag154
ag154
ag154
ag154
ag154
ag154
ag154
ag154
ag154
ag154
aS'/eos/user/p/prsaha/Tprime_analysis/FinalFit_inputs/UL/v2/600/2016/output_GluGluHToGG_M125_TuneCP5Down_13TeV-amcatnloFXFX-pythia8_GG2H.root'
p155
aS'/eos/user/p/prsaha/Tprime_analysis/FinalFit_inputs/UL/v2/600/2016/output_THQ_ctcvcp_HToGG_M125_13TeV-madgraph-pythia8_THQ.root'
p156
aS'/eos/user/p/prsaha/Tprime_analysis/FinalFit_inputs/UL/v2/600/2016/output_ttHJetToGG_M125_13TeV_amcatnloFXFX_madspin_pythia8_TTH.root'
p157
aS'/eos/user/p/prsaha/Tprime_analysis/FinalFit_inputs/UL/v2/600/2016/output_TprimeBToTH_Hgg_M125_M-600_LH_TuneCP5_PSweights_13TeV-madgraph_pythia8_Tprime600.root'
p158
aS'/eos/user/p/prsaha/Tprime_analysis/FinalFit_inputs/UL/v2/600/2016/output_VBFHToGG_M125_13TeV_amcatnlo_pythia8_VBF.root'
p159
aS'/eos/user/p/prsaha/Tprime_analysis/FinalFit_inputs/UL/v2/600/2016/output_VHToGG_M125_13TeV_amcatnloFXFX_madspin_pythia8_VH.root'
p160
aS'/eos/user/p/prsaha/Tprime_analysis/FinalFit_inputs/UL/v2/600/2017/output_GluGluHToGG_M125_TuneCP5Down_13TeV-amcatnloFXFX-pythia8_GG2H.root'
p161
aS'/eos/user/p/prsaha/Tprime_analysis/FinalFit_inputs/UL/v2/600/2017/output_THQ_ctcvcp_HToGG_M125_13TeV-madgraph-pythia8_THQ.root'
p162
aS'/eos/user/p/prsaha/Tprime_analysis/FinalFit_inputs/UL/v2/600/2017/output_ttHJetToGG_M125_13TeV_amcatnloFXFX_madspin_pythia8_TTH.root'
p163
aS'/eos/user/p/prsaha/Tprime_analysis/FinalFit_inputs/UL/v2/600/2017/output_TprimeBToTH_Hgg_M125_M-600_LH_TuneCP5_PSweights_13TeV-madgraph_pythia8_Tprime600.root'
p164
aS'/eos/user/p/prsaha/Tprime_analysis/FinalFit_inputs/UL/v2/600/2017/output_VBFHToGG_M125_13TeV_amcatnlo_pythia8_VBF.root'
p165
aS'/eos/user/p/prsaha/Tprime_analysis/FinalFit_inputs/UL/v2/600/2017/output_VHToGG_M125_13TeV_amcatnloFXFX_madspin_pythia8_VH.root'
p166
aS'/eos/user/p/prsaha/Tprime_analysis/FinalFit_inputs/UL/v2/600/2018/output_GluGluHToGG_M125_TuneCP5Down_13TeV-amcatnloFXFX-pythia8_GG2H.root'
p167
aS'/eos/user/p/prsaha/Tprime_analysis/FinalFit_inputs/UL/v2/600/2018/output_THQ_ctcvcp_HToGG_M125_13TeV-madgraph-pythia8_THQ.root'
p168
aS'/eos/user/p/prsaha/Tprime_analysis/FinalFit_inputs/UL/v2/600/2018/output_ttHJetToGG_M125_13TeV_amcatnloFXFX_madspin_pythia8_TTH.root'
p169
aS'/eos/user/p/prsaha/Tprime_analysis/FinalFit_inputs/UL/v2/600/2018/output_TprimeBToTH_Hgg_M125_M-600_LH_TuneCP5_PSweights_13TeV-madgraph_pythia8_Tprime600.root'
p170
aS'/eos/user/p/prsaha/Tprime_analysis/FinalFit_inputs/UL/v2/600/2018/output_VBFHToGG_M125_13TeV_amcatnlo_pythia8_VBF.root'
p171
aS'/eos/user/p/prsaha/Tprime_analysis/FinalFit_inputs/UL/v2/600/2018/output_VHToGG_M125_13TeV_amcatnloFXFX_madspin_pythia8_VH.root'
p172
ag153
ag153
aS'ggh_125_13TeV_THQLeptonicTag'
p173
aS'thq_125_13TeV_THQLeptonicTag'
p174
aS'tth_125_13TeV_THQLeptonicTag'
p175
aS'TprimeM600_125_13TeV_THQLeptonicTag'
p176
aS'vbf_125_13TeV_THQLeptonicTag'
p177
aS'vh_125_13TeV_THQLeptonicTag'
p178
aS'ggh_125_13TeV_THQLeptonicTag'
p179
aS'thq_125_13TeV_THQLeptonicTag'
p180
aS'tth_125_13TeV_THQLeptonicTag'
p181
aS'TprimeM600_125_13TeV_THQLeptonicTag'
p182
aS'vbf_125_13TeV_THQLeptonicTag'
p183
aS'vh_125_13TeV_THQLeptonicTag'
p184
aS'ggh_125_13TeV_THQLeptonicTag'
p185
aS'thq_125_13TeV_THQLeptonicTag'
p186
aS'tth_125_13TeV_THQLeptonicTag'
p187
aS'TprimeM600_125_13TeV_THQLeptonicTag'
p188
aS'vbf_125_13TeV_THQLeptonicTag'
p189
aS'vh_125_13TeV_THQLeptonicTag'
p190
ag153
ag153
aS'./Models_Tprime600/signal/CMS-HGG_sigfit_packaged_Tprime600_THQLeptonicTag.root'
p191
aS'./Models_Tprime600/signal/CMS-HGG_sigfit_packaged_Tprime600_THQLeptonicTag.root'
p192
aS'./Models_Tprime600/signal/CMS-HGG_sigfit_packaged_Tprime600_THQLeptonicTag.root'
p193
aS'./Models_Tprime600/signal/CMS-HGG_sigfit_packaged_Tprime600_THQLeptonicTag.root'
p194
aS'./Models_Tprime600/signal/CMS-HGG_sigfit_packaged_Tprime600_THQLeptonicTag.root'
p195
aS'./Models_Tprime600/signal/CMS-HGG_sigfit_packaged_Tprime600_THQLeptonicTag.root'
p196
aS'./Models_Tprime600/signal/CMS-HGG_sigfit_packaged_Tprime600_THQLeptonicTag.root'
p197
aS'./Models_Tprime600/signal/CMS-HGG_sigfit_packaged_Tprime600_THQLeptonicTag.root'
p198
aS'./Models_Tprime600/signal/CMS-HGG_sigfit_packaged_Tprime600_THQLeptonicTag.root'
p199
aS'./Models_Tprime600/signal/CMS-HGG_sigfit_packaged_Tprime600_THQLeptonicTag.root'
p200
aS'./Models_Tprime600/signal/CMS-HGG_sigfit_packaged_Tprime600_THQLeptonicTag.root'
p201
aS'./Models_Tprime600/signal/CMS-HGG_sigfit_packaged_Tprime600_THQLeptonicTag.root'
p202
aS'./Models_Tprime600/signal/CMS-HGG_sigfit_packaged_Tprime600_THQLeptonicTag.root'
p203
aS'./Models_Tprime600/signal/CMS-HGG_sigfit_packaged_Tprime600_THQLeptonicTag.root'
p204
aS'./Models_Tprime600/signal/CMS-HGG_sigfit_packaged_Tprime600_THQLeptonicTag.root'
p205
aS'./Models_Tprime600/signal/CMS-HGG_sigfit_packaged_Tprime600_THQLeptonicTag.root'
p206
aS'./Models_Tprime600/signal/CMS-HGG_sigfit_packaged_Tprime600_THQLeptonicTag.root'
p207
aS'./Models_Tprime600/signal/CMS-HGG_sigfit_packaged_Tprime600_THQLeptonicTag.root'
p208
aS'./Models_Tprime600/background/CMS-HGG_multipdf_THQLeptonicTag.root'
p209
ag209
aS'wsig_13TeV:hggpdfsmrel_GG2H_2016_THQLeptonicTag_13TeV'
p210
aS'wsig_13TeV:hggpdfsmrel_THQ_2016_THQLeptonicTag_13TeV'
p211
aS'wsig_13TeV:hggpdfsmrel_TTH_2016_THQLeptonicTag_13TeV'
p212
aS'wsig_13TeV:hggpdfsmrel_Tprime600_2016_THQLeptonicTag_13TeV'
p213
aS'wsig_13TeV:hggpdfsmrel_VBF_2016_THQLeptonicTag_13TeV'
p214
aS'wsig_13TeV:hggpdfsmrel_VH_2016_THQLeptonicTag_13TeV'
p215
aS'wsig_13TeV:hggpdfsmrel_GG2H_2017_THQLeptonicTag_13TeV'
p216
aS'wsig_13TeV:hggpdfsmrel_THQ_2017_THQLeptonicTag_13TeV'
p217
aS'wsig_13TeV:hggpdfsmrel_TTH_2017_THQLeptonicTag_13TeV'
p218
aS'wsig_13TeV:hggpdfsmrel_Tprime600_2017_THQLeptonicTag_13TeV'
p219
aS'wsig_13TeV:hggpdfsmrel_VBF_2017_THQLeptonicTag_13TeV'
p220
aS'wsig_13TeV:hggpdfsmrel_VH_2017_THQLeptonicTag_13TeV'
p221
aS'wsig_13TeV:hggpdfsmrel_GG2H_2018_THQLeptonicTag_13TeV'
p222
aS'wsig_13TeV:hggpdfsmrel_THQ_2018_THQLeptonicTag_13TeV'
p223
aS'wsig_13TeV:hggpdfsmrel_TTH_2018_THQLeptonicTag_13TeV'
p224
aS'wsig_13TeV:hggpdfsmrel_Tprime600_2018_THQLeptonicTag_13TeV'
p225
aS'wsig_13TeV:hggpdfsmrel_VBF_2018_THQLeptonicTag_13TeV'
p226
aS'wsig_13TeV:hggpdfsmrel_VH_2018_THQLeptonicTag_13TeV'
p227
aS'multipdf:CMS_hgg_THQLeptonicTag_13TeV_bkgshape'
p228
aS'multipdf:roohist_data_mass_THQLeptonicTag'
p229
aF0.0004894228186458349
aF0.0016710491243531848
aF0.00533477468713528
aF0.01522664967533821
aF9.62322180839692e-05
aF0.0007024778659712183
aF0.00018633780564414337
aF0.0017632707070092124
aF0.005988560981450064
aF0.016088642084866933
aF0.0002504245394447935
aF0.0012218405408930266
aF0.00045569260691991076
aF0.0018659697145757548
aF0.0065514918369444786
aF0.01698595598185193
aF4.528585577645572e-05
aF0.0017582868786121253
ag153
ag153
aF1.349823905003782e-07
aF1.537945542558805e-10
aF4.023072922226894e-07
aF1.5537639434964154e-08
aF6.172285217262827e-09
aF6.83307520443922e-08
aF2.937676309483169e-08
aF1.5192863419795025e-10
aF1.4696935810693092e-07
aF1.546442532717698e-08
aF8.115800729071397e-09
aF5.805936599780168e-08
aF3.055509536335506e-08
aF1.7023885751047986e-10
aF1.8619624296163736e-07
aF1.721721951288291e-08
aF7.85961576223161e-09
aF9.321991069928487e-08
ag153
ag153
aF0.0006635431182097741
aF0.0017819267922280398
aF0.005653411465748591
aF0.016253171628766376
aF0.00010014404832656426
aF0.0007233892407626968
aF0.0002986237581650235
aF0.0018818827462149458
aF0.006339554970102544
aF0.017113274831866806
aF0.0002671649574045246
aF0.0012290012474294948
aF0.0007010576478479782
aF0.001905782515163457
aF0.006394433395687303
aF0.017295808041131462
aF3.2129687580954185e-05
aF0.0015687106144347562
ag153
ag153
aF0.0004894466831373636
aF0.0016710743017716659
aF0.005334856315056382
aF0.015226875561813532
aF9.624184773485744e-05
aF0.0007024805031285971
aF0.00018762405335267588
aF0.0017754177841093897
aF0.00603044005129442
aF0.01620026306924061
aF0.00025209735489004455
aF0.0012297375779022639
aF0.0004557007530813023
aF0.0018659952293269238
aF0.006551560391187544
aF0.01698618294299189
aF4.528742913440163e-05
aF0.0017583004878842022
ag153
ag153
aF0.0004893989541543064
aF0.0016710239196524356
aF0.005334692994865484
aF0.015226423539024113
aF9.622257457426848e-05
aF0.000702475234044115
aF0.0001850562671837215
aF0.0017511658087688909
aF0.005946829253681381
aF0.01597741069815152
aF0.00024875745303736154
aF0.0012139688891762868
aF0.0004556844679042748
aF0.0018659441732867535
aF0.006551423223730919
aF0.01698572877965101
aF4.528428064070422e-05
aF0.0017582732542944985
ag153
ag153
aF0.0004920945785735912
aF0.001675957768921025
aF0.005348670567292197
aF0.015268199396674231
aF9.661369220735646e-05
aF0.0007039522308852179
aF0.0001877637011881282
aF0.0017886612260972542
aF0.006071076322086426
aF0.016320691074613654
aF0.0002542950557168019
aF0.0012396736936274454
aF0.0004593784506710639
aF0.001880105683386227
aF0.006602212628897222
aF0.0171131003434298
aF4.5144217592912655e-05
aF0.0017723743733141812
ag153
ag153
aF0.00048675847792452396
aF0.0016661497501580763
aF0.005320893326688288
aF0.01518516949874361
aF9.585126966525734e-05
aF0.000701002575476395
aF0.00018491819079122652
aF0.0017380583193617697
aF0.005906599871248336
aF0.015858212650582425
aF0.00024657789685856245
aF0.0012041345330464982
aF0.00045202070343765125
aF0.0018518906387745295
aF0.006500982385311616
aF0.016859311735469333
aF4.5423824091579253e-05
aF0.0017442623531712443
ag153
ag153
aF0.0004909509312584136
aF0.0016742672368861991
aF0.005344131011356788
aF0.015254600850001238
aF9.657927735237396e-05
aF0.0007032949134250996
aF0.0001868449943806587
aF0.0017682011948198927
aF0.00600372419240298
aF0.016131866598191637
aF0.0002510862709065414
aF0.0012267773239471823
aF0.0004564514256759099
aF0.0018689910986665235
aF0.006561533871549813
aF0.01701272754399402
aF4.5256621675442816e-05
aF0.0017610683796221987
ag153
ag153
aF0.0004878975434625092
aF0.0016678342857922345
aF0.005325425748144336
aF0.015198724564389064
aF9.588565301958706e-05
aF0.0007016606538203532
aF0.0001858316426542264
aF0.0017583477668233832
aF0.005973415862820213
aF0.016045478006294973
aF0.0002497637862541547
aF0.0012169114082461795
aF0.00045493437917733183
aF0.0018629510272704895
aF0.006541457462008903
aF0.01695920711134436
aF4.5314922107260144e-05
aF0.0017555077740229214
ag153
ag153
aF0.0004904107978034881
aF0.0016746474466976847
aF0.005343937910999345
aF0.015259303040707233
aF9.642958254879706e-05
aF0.0007038798902273884
aF0.00018689746406116726
aF0.0017678297716880267
aF0.006003310246028109
aF0.016129198040826725
aF0.00025107067455944237
aF0.0012255939177512017
aF0.00045669856868813983
aF0.0018701082090638928
aF0.0065658277061360765
aF0.017023547375664118
aF4.533674253872333e-05
aF0.0017621621289984595
ag153
ag153
aF0.0004884359026327644
aF0.001667454691995157
aF0.0053256192403160485
aF0.01519403144991645
aF9.603506290001718e-05
aF0.0007010772646355787
aF0.00018577887468012368
aF0.0017587175719221183
aF0.005973829078785504
aF0.016048137840880917
aF0.00024977923932169386
aF0.0012180924362525582
aF0.00045468779998901037
aF0.0018618358293582124
aF0.006537171651650279
aF0.016948406366099494
aF4.5234981700607843e-05
aF0.0017544160393687335
ag153
ag153
aF0.0004937106477884034
aF0.0016798159051409902
aF0.005354950609311816
aF0.015308223645016576
aF9.68544130672094e-05
aF0.0007059231990840904
aF0.00018648688160184635
aF0.0017641610321323603
aF0.005992273873423767
aF0.0160975732107628
aF0.0002506076952012131
aF0.0012211995689736192
aF0.00045799759884905045
aF0.0018704435699368213
aF0.006567523358301134
aF0.01702898847554364
aF4.5162944836658414e-05
aF0.0017632912717753047
ag153
ag153
aF0.0004851349895032664
aF0.0016622831795775222
aF0.005314613783067036
aF0.01514508102899662
aF9.56100251628006e-05
aF0.0006990325368779653
aF0.00018618871878051303
aF0.0017623804210901112
aF0.00598484907177463
aF0.016079711965430437
aF0.0002502413976725483
aF0.0012224815923802769
aF0.00045338759816026267
aF0.001861496107977647
aF0.006535458250528751
aF0.016942925484143778
aF4.540852952498587e-05
aF0.0017532826206442212
ag153
ag153
aF0.0004912819741116785
aF0.001673552254057228
aF0.00533962084757943
aF0.01525024207399528
aF9.661210407467468e-05
aF0.0007041569089241502
aF0.000188109162197299
aF0.0017657852318458073
aF0.005998965382977139
aF0.016112526330758443
aF0.00025101731094213627
aF0.001222441452841201
aF0.0004563411497311179
aF0.0018668950169534126
aF0.006554678885644614
aF0.016995029888344164
aF4.528246054777286e-05
aF0.0017591486140594837
ag153
ag153
aF0.0004875636842690681
aF0.0016685461515241796
aF0.005329921935162967
aF0.015203058082578564
aF9.585233320309603e-05
aF0.000700798820288881
aF0.0001845664351348802
aF0.00176075647687656
aF0.005978164302038694
aF0.016064761025333062
aF0.00024983178473477174
aF0.0012212399173862167
aF0.000455044071370425
aF0.001865044442722816
aF0.006548305499941464
aF0.01697688221358455
aF4.528887873380385e-05
aF0.0017574251354485738
ag153
ag153
aF0.0004948163175819459
aF0.0016800230324048927
aF0.0053518951863585065
aF0.015302428217939706
aF9.736063894925901e-05
aF0.0007058899555171427
aF0.00018719052489675708
aF0.0017716517366009338
aF0.006028814291889309
aF0.016156779759815956
aF0.00025463918452125247
aF0.0012453574125344353
aF0.00046022143904761117
aF0.0018789108579331394
aF0.0066051586591177125
aF0.01709760920034538
aF4.586869739568378e-05
aF0.0017671708163020075
ag153
ag153
aF0.00048402931970972394
aF0.001662075716401133
aF0.005317670917768275
aF0.015150875601438372
aF9.510379439611588e-05
aF0.0006990637127922381
aF0.00018548507879425637
aF0.0017548899517948265
aF0.005948318362057842
aF0.016020507200159333
aF0.0002462099037569987
aF0.001198328567959784
aF0.00045116382559253783
aF0.0018530306810853115
aF0.0064979006485367825
aF0.016874308185249234
aF4.470301306291158e-05
aF0.0017494082480125177
ag153
ag153
aF0.0004952423518425594
aF0.001675573324401829
aF0.005356919006544504
aF0.01526737093248475
aF9.731727146744906e-05
aF0.0007062215254680253
aF0.00018735492809756758
aF0.0017697384324901065
aF0.006011330186620541
aF0.01615098672718034
aF0.0002556979813419182
aF0.0012277724422934475
aF0.0004582507155417697
aF0.0018695551272688126
aF0.0065666918033685856
aF0.01701839611775695
aF4.60026779877898e-05
aF0.0017622693809534536
ag153
ag153
aF0.00048360327848674634
aF0.0016665252221022156
aF0.005312625653374424
aF0.015185931429292197
aF9.514716487400266e-05
aF0.0006987336577051737
aF0.00018532066778995373
aF0.001756803287931374
aF0.005965738495448737
aF0.01602631394864407
aF0.0002451510972026063
aF0.001215910234836071
aF0.00045313454221707094
aF0.0018623845495783094
aF0.006536296903948829
aF0.01695351702246613
aF4.4569027674635796e-05
aF0.0017543056368788208
ag153
ag153
aF0.00048280170448230733
aF0.001673856622362141
aF0.005339760179230269
aF0.015246310018994689
aF9.383840698775569e-05
aF0.0007009944876629648
aF0.00018754751562677428
aF0.001759781492537023
aF0.005965520932619278
aF0.016030298763318566
aF0.0002542524016160184
aF0.0012178805234109638
aF0.00046927885849937397
aF0.001866005232665612
aF0.006545753582175835
aF0.016938315267061507
aF4.2941937960426716e-05
aF0.0017344219916379567
ag153
ag153
aF0.0004944070534963724
aF0.001669770404355874
aF0.005334959410604432
aF0.015219787544581235
aF9.766391908307008e-05
aF0.0007061882820937319
aF0.00018924204056255782
aF0.001769212711213384
aF0.006026906026920441
aF0.01616410835354599
aF0.0002494856515845133
aF0.0012206697159216255
aF0.0004466969975990343
aF0.0018744502933528172
aF0.006577457735567357
aF0.01710576826881155
aF5.051069982444709e-05
aF0.001789839740917866
ag153
ag153
aF0.0006134982977528125
aF0.0016760978738783183
aF0.005247413594846151
aF0.015264067881666787
aF9.62322180839692e-05
aF0.0006897968759318474
aF0.00023964140564203262
aF0.0017688740381771595
aF0.005691032378535965
aF0.016109085204703888
aF0.0002504245394447935
aF0.0012391743020998547
aF0.0007278144548763521
aF0.0018779977377825219
aF0.006702376422708767
aF0.017032122225884905
aF4.528585577645572e-05
aF0.0017992109223996522
ag153
ag153
aF0.0006134982977528125
aF0.0016781589057106201
aF0.005505838979338762
aF0.015198810633547888
aF9.62322180839692e-05
aF0.0006900218339893627
aF0.00023964140564203262
aF0.0017642390662864216
aF0.005835544986894092
aF0.016125213187564214
aF0.0002504245394447935
aF0.0012431389004632365
aF0.0007278144548763521
aF0.0018717253672662082
aF0.00671362499724637
aF0.016977337614946464
aF7.980242207850097e-05
aF0.0018036967394436942
ag153
ag153
aF0.0006134982977528125
aF0.0016962491952172386
aF0.005884289698514067
aF0.015445162325197659
aF9.62322180839692e-05
aF0.0006829616157943974
aF0.00023964140564203262
aF0.0017839475647392078
aF0.0061360615011381014
aF0.016335041523944938
aF0.0002504245394447935
aF0.0013146964429324726
aF0.0007278144548763521
aF0.0019067554099656547
aF0.00701626415411738
aF0.017408284374596406
aF3.64998641089187e-05
aF0.0018290089865331538
ag153
ag153
aF0.0006134982977528125
aF0.0016525322713678257
aF0.005109699987556837
aF0.014999688053444482
aF9.62322180839692e-05
aF0.0007736048694368947
aF0.00023964140564203262
aF0.0017319730549480994
aF0.005641840793487063
aF0.01584792740885632
aF0.00023685438281972893
aF0.0012066909002896864
aF0.0007278144548763521
aF0.0018177131080676645
aF0.006185052643559175
aF0.016543904056675274
aF3.584655496524647e-05
aF0.001698861819022568
ag153
ag153
aF0.0006134982977528125
aF0.001710095018705421
aF0.005438591686919736
aF0.015473007904535097
aF0.0001308175587837468
aF0.0008778355239797975
aF0.00015566548972856253
aF0.0018122682712267135
aF0.006297462682596233
aF0.016432524146466676
aF0.00017808225948101608
aF0.0015503940940106986
aF0.0008260971590061672
aF0.0019225667651028289
aF0.006539584484471561
aF0.0173646027903942
aF7.617904702783562e-05
aF0.00201158403797308
ag153
ag153
aF0.0006134982977528125
aF0.001639437486306291
aF0.005618704496502147
aF0.014968966353950397
aF9.62322180839692e-05
aF0.000655807755165938
aF0.00024106557975756004
aF0.0016978584101892125
aF0.005763212625879532
aF0.015705742483504537
aF0.0002353214076720178
aF0.0011707037347150617
aF0.0005114311788929626
aF0.0018172946481840313
aF0.0062689079409210535
aF0.016705187054071757
aF6.033583849784918e-05
aF0.0012654930724238511
ag153
ag153
aF0.0006134982977528125
aF0.0016777342925986712
aF0.005200714408873708
aF0.015311392561192072
aF0.00012743876754939265
aF0.0008616307543434232
aF0.00034956808667629957
aF0.0017655180592477393
aF0.00588086269726773
aF0.016160915933767228
aF0.000222556102926319
aF0.0014083033156566671
aF0.0007286771069630049
aF0.0018834667159026708
aF0.006506720773813868
aF0.017107682963455773
aF3.9576309973199386e-05
aF0.0016593296932114754
ag153
ag153
aF0.0006134982977528125
aF0.0016714453533948626
aF0.005234173628794636
aF0.015192607781744527
aF9.62322180839692e-05
aF0.000499074215341011
aF0.00013223764108261093
aF0.0017551489606724147
aF0.005899851209960616
aF0.016038553735910455
aF0.00021198991362325614
aF0.0011780628119595349
aF0.0007278144548763521
aF0.0018642149079965975
aF0.006504404892439197
aF0.01700960961960618
aF8.029363198147621e-05
aF0.0014170152262522606
ag153
ag153
aF0.0006134982977528125
aF0.0016797545327126677
aF0.005253871213792394
aF0.015193828208582116
aF9.961100931832334e-05
aF0.0007161247412028615
aF0.00023964140564203262
aF0.0017684425289701267
aF0.005810200147834621
aF0.016112673678577494
aF0.0002247195934614865
aF0.001304718192841392
aF0.0007278144548763521
aF0.001867060999401815
aF0.006356410471198615
aF0.01687207437834104
aF3.8820172449050006e-05
aF0.0016176796780200675
ag153
ag153
aF0.0006134982977528125
aF0.001677786767838977
aF0.00514326543720145
aF0.015246094037693836
aF9.62322180839692e-05
aF0.0007862510282308222
aF0.00023964140564203262
aF0.001756673481704496
aF0.005942072882135108
aF0.01606335996061148
aF0.00023685438281972893
aF0.001335305276370491
aF0.000615706441749353
aF0.0018803387098920155
aF0.006443148734888382
aF0.01706257233126962
aF2.416935149085475e-05
aF0.0017649145684117684
ag153
ag153
aF0.0006134982977528125
aF0.001674476569381387
aF0.004924315518751499
aF0.015254504114666001
aF9.62322180839692e-05
aF0.0007633118051586507
aF0.00023964140564203262
aF0.0017566768821097867
aF0.006143173293366999
aF0.016049676876633612
aF0.0002504245394447935
aF0.0012473249771574046
aF0.0007278144548763521
aF0.0018764986985146948
aF0.006492433130006248
aF0.01703153027767712
aF4.528585577645572e-05
aF0.0018403768317512004
ag153
ag153
aF0.0006134982977528125
aF0.0016746710027657312
aF0.005430152235451402
aF0.015216191269005752
aF9.62322180839692e-05
aF0.000746321968009056
aF0.00023964140564203262
aF0.0017595922638733441
aF0.005901068265075082
aF0.016136106723337207
aF0.0002504245394447935
aF0.0013323809707799228
aF0.0007278144548763521
aF0.0018774604920928084
aF0.006740794972756703
aF0.0170617150906196
aF6.309744730970124e-05
aF0.001767163425029139
ag153
ag153
aF0.0006134982977528125
aF0.0016773494770180655
aF0.004953673782390311
aF0.015168301243681848
aF9.62322180839692e-05
aF0.0006912867019224223
aF0.00023964140564203262
aF0.0017533338304254187
aF0.005883145276357027
aF0.015990546373672032
aF0.00024678885620232904
aF0.0012601923517649993
aF0.0007278144548763521
aF0.001871276469618266
aF0.006452365583754727
aF0.017015833208745335
aF4.528585577645572e-05
aF0.0016967060491879238
ag153
ag153
aF0.0006134982977528125
aF0.001679818194489778
aF0.005238330507182809
aF0.015255120469841565
aF9.62322180839692e-05
aF0.0006820962365878813
aF0.00023964140564203262
aF0.0017620746068942594
aF0.005747370960534681
aF0.016120641882224618
aF0.00023685438281972893
aF0.001258219428564189
aF0.0007278144548763521
aF0.0018750464565222558
aF0.006602242555345583
aF0.01707189587659741
aF4.528585577645572e-05
aF0.0016574955261603463
ag153
ag153
atp230
ba(lp231
g15
(g16
(dp232
g18
g19
(g20
(I0
tp233
g22
tp234
Rp235
(I1
(I1
tp236
g29
I00
(lp237
g43
atp238
bsg80
Nstp239
Rp240
ag15
(g16
(dp241
g18
g19
(g20
(I0
tp242
g22
tp243
Rp244
(I1
(I45
tp245
g29
I00
(lp246
g33
ag34
ag35
ag36
ag37
ag38
ag39
ag40
ag41
ag42
ag44
ag45
ag46
ag47
ag48
ag49
ag50
ag51
ag52
ag53
ag54
ag55
ag56
ag57
ag58
ag59
ag60
ag61
ag62
ag63
ag64
ag65
ag66
ag67
ag68
ag69
ag70
ag71
ag72
ag73
ag74
ag75
ag76
ag77
ag78
atp247
bsg80
Nstp248
Rp249
a(dp250
S'0.14.1'
p251
(dp252
S'axes'
p253
g14
sS'blocks'
p254
(lp255
(dp256
S'mgr_locs'
p257
c__builtin__
slice
p258
(I10
I11
I1
tp259
Rp260
sS'values'
p261
g101
sa(dp262
g257
g19
(g20
(I0
tp263
g22
tp264
Rp265
(I1
(I45
tp266
g91
I00
S'\x00\x00\x00\x00\x00\x00\x00\x00\x01\x00\x00\x00\x00\x00\x00\x00\x02\x00\x00\x00\x00\x00\x00\x00\x03\x00\x00\x00\x00\x00\x00\x00\x04\x00\x00\x00\x00\x00\x00\x00\x05\x00\x00\x00\x00\x00\x00\x00\x06\x00\x00\x00\x00\x00\x00\x00\x07\x00\x00\x00\x00\x00\x00\x00\x08\x00\x00\x00\x00\x00\x00\x00\t\x00\x00\x00\x00\x00\x00\x00\x0b\x00\x00\x00\x00\x00\x00\x00\x0c\x00\x00\x00\x00\x00\x00\x00\r\x00\x00\x00\x00\x00\x00\x00\x0e\x00\x00\x00\x00\x00\x00\x00\x0f\x00\x00\x00\x00\x00\x00\x00\x10\x00\x00\x00\x00\x00\x00\x00\x11\x00\x00\x00\x00\x00\x00\x00\x12\x00\x00\x00\x00\x00\x00\x00\x13\x00\x00\x00\x00\x00\x00\x00\x14\x00\x00\x00\x00\x00\x00\x00\x15\x00\x00\x00\x00\x00\x00\x00\x16\x00\x00\x00\x00\x00\x00\x00\x17\x00\x00\x00\x00\x00\x00\x00\x18\x00\x00\x00\x00\x00\x00\x00\x19\x00\x00\x00\x00\x00\x00\x00\x1a\x00\x00\x00\x00\x00\x00\x00\x1b\x00\x00\x00\x00\x00\x00\x00\x1c\x00\x00\x00\x00\x00\x00\x00\x1d\x00\x00\x00\x00\x00\x00\x00\x1e\x00\x00\x00\x00\x00\x00\x00\x1f\x00\x00\x00\x00\x00\x00\x00 \x00\x00\x00\x00\x00\x00\x00!\x00\x00\x00\x00\x00\x00\x00"\x00\x00\x00\x00\x00\x00\x00#\x00\x00\x00\x00\x00\x00\x00$\x00\x00\x00\x00\x00\x00\x00%\x00\x00\x00\x00\x00\x00\x00&\x00\x00\x00\x00\x00\x00\x00\'\x00\x00\x00\x00\x00\x00\x00(\x00\x00\x00\x00\x00\x00\x00)\x00\x00\x00\x00\x00\x00\x00*\x00\x00\x00\x00\x00\x00\x00+\x00\x00\x00\x00\x00\x00\x00,\x00\x00\x00\x00\x00\x00\x00-\x00\x00\x00\x00\x00\x00\x00'
p267
tp268
bsg261
g112
sasstp269
bsb.