ccopy_reg
_reconstructor
p0
(cpandas.core.frame
DataFrame
p1
c__builtin__
object
p2
Ntp3
Rp4
(dp5
S'_metadata'
p6
(lp7
sS'_typ'
p8
S'dataframe'
p9
sS'_data'
p10
g0
(cpandas.core.internals
BlockManager
p11
g2
Ntp12
Rp13
((lp14
cpandas.core.indexes.base
_new_Index
p15
(cpandas.core.indexes.base
Index
p16
(dp17
S'data'
p18
cnumpy.core.multiarray
_reconstruct
p19
(cnumpy
ndarray
p20
(I0
tp21
S'b'
p22
tp23
Rp24
(I1
(I46
tp25
cnumpy
dtype
p26
(S'O8'
p27
I0
I1
tp28
Rp29
(I3
S'|'
p30
NNNI-1
I-1
I63
tp31
bI00
(lp32
S'year'
p33
aS'type'
p34
aS'procOriginal'
p35
aS'proc'
p36
aS'proc_s0'
p37
aS'cat'
p38
aS'inputWSFile'
p39
aS'nominalDataName'
p40
aS'modelWSFile'
p41
aS'model'
p42
aS'rate'
p43
aS'nominal_yield'
p44
aS'sumw2'
p45
aS'nominal_yield_COWCorr'
p46
aS'LooseMvaSF_up_yield'
p47
aS'LooseMvaSF_down_yield'
p48
aS'PreselSF_up_yield'
p49
aS'PreselSF_down_yield'
p50
aS'electronVetoSF_up_yield'
p51
aS'electronVetoSF_down_yield'
p52
aS'TriggerWeight_up_yield'
p53
aS'TriggerWeight_down_yield'
p54
aS'MuonIDWeight_up_yield'
p55
aS'MuonIDWeight_down_yield'
p56
aS'MuonIsoWeight_up_yield'
p57
aS'MuonIsoWeight_down_yield'
p58
aS'ElectronIDWeight_up_yield'
p59
aS'ElectronIDWeight_down_yield'
p60
aS'ElectronRecoWeight_up_yield'
p61
aS'ElectronRecoWeight_down_yield'
p62
aS'JetBTagReshapeWeight_up_yield'
p63
aS'JetBTagReshapeWeight_down_yield'
p64
aS'SigmaEOverEShift_up_yield'
p65
aS'SigmaEOverEShift_down_yield'
p66
aS'MvaShift_up_yield'
p67
aS'MvaShift_down_yield'
p68
aS'JEC_up_yield'
p69
aS'JEC_down_yield'
p70
aS'JER_up_yield'
p71
aS'JER_down_yield'
p72
aS'metJecUncertainty_up_yield'
p73
aS'metJecUncertainty_down_yield'
p74
aS'metPhoUncertainty_up_yield'
p75
aS'metPhoUncertainty_down_yield'
p76
aS'metUncUncertainty_up_yield'
p77
aS'metUncUncertainty_down_yield'
p78
atp79
bsS'name'
p80
Nstp81
Rp82
ag15
(cpandas.core.indexes.numeric
Int64Index
p83
(dp84
g18
g19
(g20
(I0
tp85
g22
tp86
Rp87
(I1
(I20
tp88
g26
(S'i8'
p89
I0
I1
tp90
Rp91
(I3
S'<'
p92
NNNI-1
I-1
I0
tp93
bI00
S'\x00\x00\x00\x00\x00\x00\x00\x00\x01\x00\x00\x00\x00\x00\x00\x00\x02\x00\x00\x00\x00\x00\x00\x00\x03\x00\x00\x00\x00\x00\x00\x00\x04\x00\x00\x00\x00\x00\x00\x00\x05\x00\x00\x00\x00\x00\x00\x00\x06\x00\x00\x00\x00\x00\x00\x00\x07\x00\x00\x00\x00\x00\x00\x00\x08\x00\x00\x00\x00\x00\x00\x00\t\x00\x00\x00\x00\x00\x00\x00\n\x00\x00\x00\x00\x00\x00\x00\x0b\x00\x00\x00\x00\x00\x00\x00\x0c\x00\x00\x00\x00\x00\x00\x00\r\x00\x00\x00\x00\x00\x00\x00\x0e\x00\x00\x00\x00\x00\x00\x00\x0f\x00\x00\x00\x00\x00\x00\x00\x10\x00\x00\x00\x00\x00\x00\x00\x11\x00\x00\x00\x00\x00\x00\x00\x12\x00\x00\x00\x00\x00\x00\x00\x13\x00\x00\x00\x00\x00\x00\x00'
p94
tp95
bsg80
Nstp96
Rp97
a(lp98
g19
(g20
(I0
tp99
g22
tp100
Rp101
(I1
(I1
I20
tp102
g26
(S'f8'
p103
I0
I1
tp104
Rp105
(I3
S'<'
p106
NNNI-1
I-1
I0
tp107
bI00
S'\x00\x00\x00\x00@\xbd\xe1@\x00\x00\x00\x00@\xbd\xe1@\x00\x00\x00\x00@\xbd\xe1@\x00\x00\x00\x00@\xbd\xe1@\x00\x00\x00\x00@\xbd\xe1@\x00\x00\x00\x00@\xbd\xe1@\x00\x00\x00\x00\x00A\xe4@\x00\x00\x00\x00\x00A\xe4@\x00\x00\x00\x00\x00A\xe4@\x00\x00\x00\x00\x00A\xe4@\x00\x00\x00\x00\x00A\xe4@\x00\x00\x00\x00\x00A\xe4@\x00\x00\x00\x00\xc06\xed@\x00\x00\x00\x00\xc06\xed@\x00\x00\x00\x00\xc06\xed@\x00\x00\x00\x00\xc06\xed@\x00\x00\x00\x00\xc06\xed@\x00\x00\x00\x00\xc06\xed@\x00\x00\x00\x00\x00\x00\xf0?\x00\x00\x00\x00\x00\x00\xf0\xbf'
p108
tp109
bag19
(g20
(I0
tp110
g22
tp111
Rp112
(I1
(I45
I20
tp113
g29
I00
(lp114
S'2016'
p115
ag115
ag115
ag115
ag115
ag115
aS'2017'
p116
ag116
ag116
ag116
ag116
ag116
aS'2018'
p117
ag117
ag117
ag117
ag117
ag117
aS'merged'
p118
ag118
aS'sig'
p119
ag119
ag119
ag119
ag119
ag119
ag119
ag119
ag119
ag119
ag119
ag119
ag119
ag119
ag119
ag119
ag119
ag119
aS'bkg'
p120
ag18
aS'GG2H'
p121
aS'THQ'
p122
aS'TTH'
p123
aS'Tprime1000'
p124
aS'VBF'
p125
aS'VH'
p126
ag121
ag122
ag123
ag124
ag125
ag126
ag121
ag122
ag123
ag124
ag125
ag126
aS'bkg_mass'
p127
aS'data_obs'
p128
aS'ggH_2016_hgg'
p129
aS'tHq_2016_hgg'
p130
aS'ttH_2016_hgg'
p131
aS'TvlqM1000_2016_hgg'
p132
aS'qqH_2016_hgg'
p133
aS'VH_2016_hgg'
p134
aS'ggH_2017_hgg'
p135
aS'tHq_2017_hgg'
p136
aS'ttH_2017_hgg'
p137
aS'TvlqM1000_2017_hgg'
p138
aS'qqH_2017_hgg'
p139
aS'VH_2017_hgg'
p140
aS'ggH_2018_hgg'
p141
aS'tHq_2018_hgg'
p142
aS'ttH_2018_hgg'
p143
aS'TvlqM1000_2018_hgg'
p144
aS'qqH_2018_hgg'
p145
aS'VH_2018_hgg'
p146
ag127
ag128
aS'ggh'
p147
aS'thq'
p148
aS'tth'
p149
aS'TprimeM1000'
p150
aS'vbf'
p151
aS'vh'
p152
ag147
ag148
ag149
ag150
ag151
ag152
ag147
ag148
ag149
ag150
ag151
ag152
aS'-'
p153
ag153
aS'THQLeptonicTag'
p154
ag154
ag154
ag154
ag154
ag154
ag154
ag154
ag154
ag154
ag154
ag154
ag154
ag154
ag154
ag154
ag154
ag154
ag154
ag154
aS'/eos/user/p/prsaha/Tprime_analysis/FinalFit_inputs/UL/v2/1000/2016/output_GluGluHToGG_M125_TuneCP5Down_13TeV-amcatnloFXFX-pythia8_GG2H.root'
p155
aS'/eos/user/p/prsaha/Tprime_analysis/FinalFit_inputs/UL/v2/1000/2016/output_THQ_ctcvcp_HToGG_M125_13TeV-madgraph-pythia8_THQ.root'
p156
aS'/eos/user/p/prsaha/Tprime_analysis/FinalFit_inputs/UL/v2/1000/2016/output_ttHJetToGG_M125_13TeV_amcatnloFXFX_madspin_pythia8_TTH.root'
p157
aS'/eos/user/p/prsaha/Tprime_analysis/FinalFit_inputs/UL/v2/1000/2016/output_TprimeBToTH_Hgg_M125_M-1000_LH_TuneCP5_PSweights_13TeV-madgraph_pythia8_Tprime1000.root'
p158
aS'/eos/user/p/prsaha/Tprime_analysis/FinalFit_inputs/UL/v2/1000/2016/output_VBFHToGG_M125_13TeV_amcatnlo_pythia8_VBF.root'
p159
aS'/eos/user/p/prsaha/Tprime_analysis/FinalFit_inputs/UL/v2/1000/2016/output_VHToGG_M125_13TeV_amcatnloFXFX_madspin_pythia8_VH.root'
p160
aS'/eos/user/p/prsaha/Tprime_analysis/FinalFit_inputs/UL/v2/1000/2017/output_GluGluHToGG_M125_TuneCP5Down_13TeV-amcatnloFXFX-pythia8_GG2H.root'
p161
aS'/eos/user/p/prsaha/Tprime_analysis/FinalFit_inputs/UL/v2/1000/2017/output_THQ_ctcvcp_HToGG_M125_13TeV-madgraph-pythia8_THQ.root'
p162
aS'/eos/user/p/prsaha/Tprime_analysis/FinalFit_inputs/UL/v2/1000/2017/output_ttHJetToGG_M125_13TeV_amcatnloFXFX_madspin_pythia8_TTH.root'
p163
aS'/eos/user/p/prsaha/Tprime_analysis/FinalFit_inputs/UL/v2/1000/2017/output_TprimeBToTH_Hgg_M125_M-1000_LH_TuneCP5_PSweights_13TeV-madgraph_pythia8_Tprime1000.root'
p164
aS'/eos/user/p/prsaha/Tprime_analysis/FinalFit_inputs/UL/v2/1000/2017/output_VBFHToGG_M125_13TeV_amcatnlo_pythia8_VBF.root'
p165
aS'/eos/user/p/prsaha/Tprime_analysis/FinalFit_inputs/UL/v2/1000/2017/output_VHToGG_M125_13TeV_amcatnloFXFX_madspin_pythia8_VH.root'
p166
aS'/eos/user/p/prsaha/Tprime_analysis/FinalFit_inputs/UL/v2/1000/2018/output_GluGluHToGG_M125_TuneCP5Down_13TeV-amcatnloFXFX-pythia8_GG2H.root'
p167
aS'/eos/user/p/prsaha/Tprime_analysis/FinalFit_inputs/UL/v2/1000/2018/output_THQ_ctcvcp_HToGG_M125_13TeV-madgraph-pythia8_THQ.root'
p168
aS'/eos/user/p/prsaha/Tprime_analysis/FinalFit_inputs/UL/v2/1000/2018/output_ttHJetToGG_M125_13TeV_amcatnloFXFX_madspin_pythia8_TTH.root'
p169
aS'/eos/user/p/prsaha/Tprime_analysis/FinalFit_inputs/UL/v2/1000/2018/output_TprimeBToTH_Hgg_M125_M-1000_LH_TuneCP5_PSweights_13TeV-madgraph_pythia8_Tprime1000.root'
p170
aS'/eos/user/p/prsaha/Tprime_analysis/FinalFit_inputs/UL/v2/1000/2018/output_VBFHToGG_M125_13TeV_amcatnlo_pythia8_VBF.root'
p171
aS'/eos/user/p/prsaha/Tprime_analysis/FinalFit_inputs/UL/v2/1000/2018/output_VHToGG_M125_13TeV_amcatnloFXFX_madspin_pythia8_VH.root'
p172
ag153
ag153
aS'ggh_125_13TeV_THQLeptonicTag'
p173
aS'thq_125_13TeV_THQLeptonicTag'
p174
aS'tth_125_13TeV_THQLeptonicTag'
p175
aS'TprimeM1000_125_13TeV_THQLeptonicTag'
p176
aS'vbf_125_13TeV_THQLeptonicTag'
p177
aS'vh_125_13TeV_THQLeptonicTag'
p178
aS'ggh_125_13TeV_THQLeptonicTag'
p179
aS'thq_125_13TeV_THQLeptonicTag'
p180
aS'tth_125_13TeV_THQLeptonicTag'
p181
aS'TprimeM1000_125_13TeV_THQLeptonicTag'
p182
aS'vbf_125_13TeV_THQLeptonicTag'
p183
aS'vh_125_13TeV_THQLeptonicTag'
p184
aS'ggh_125_13TeV_THQLeptonicTag'
p185
aS'thq_125_13TeV_THQLeptonicTag'
p186
aS'tth_125_13TeV_THQLeptonicTag'
p187
aS'TprimeM1000_125_13TeV_THQLeptonicTag'
p188
aS'vbf_125_13TeV_THQLeptonicTag'
p189
aS'vh_125_13TeV_THQLeptonicTag'
p190
ag153
ag153
aS'./Models_Tprime1000/signal/CMS-HGG_sigfit_packaged_Tprime1000_THQLeptonicTag.root'
p191
aS'./Models_Tprime1000/signal/CMS-HGG_sigfit_packaged_Tprime1000_THQLeptonicTag.root'
p192
aS'./Models_Tprime1000/signal/CMS-HGG_sigfit_packaged_Tprime1000_THQLeptonicTag.root'
p193
aS'./Models_Tprime1000/signal/CMS-HGG_sigfit_packaged_Tprime1000_THQLeptonicTag.root'
p194
aS'./Models_Tprime1000/signal/CMS-HGG_sigfit_packaged_Tprime1000_THQLeptonicTag.root'
p195
aS'./Models_Tprime1000/signal/CMS-HGG_sigfit_packaged_Tprime1000_THQLeptonicTag.root'
p196
aS'./Models_Tprime1000/signal/CMS-HGG_sigfit_packaged_Tprime1000_THQLeptonicTag.root'
p197
aS'./Models_Tprime1000/signal/CMS-HGG_sigfit_packaged_Tprime1000_THQLeptonicTag.root'
p198
aS'./Models_Tprime1000/signal/CMS-HGG_sigfit_packaged_Tprime1000_THQLeptonicTag.root'
p199
aS'./Models_Tprime1000/signal/CMS-HGG_sigfit_packaged_Tprime1000_THQLeptonicTag.root'
p200
aS'./Models_Tprime1000/signal/CMS-HGG_sigfit_packaged_Tprime1000_THQLeptonicTag.root'
p201
aS'./Models_Tprime1000/signal/CMS-HGG_sigfit_packaged_Tprime1000_THQLeptonicTag.root'
p202
aS'./Models_Tprime1000/signal/CMS-HGG_sigfit_packaged_Tprime1000_THQLeptonicTag.root'
p203
aS'./Models_Tprime1000/signal/CMS-HGG_sigfit_packaged_Tprime1000_THQLeptonicTag.root'
p204
aS'./Models_Tprime1000/signal/CMS-HGG_sigfit_packaged_Tprime1000_THQLeptonicTag.root'
p205
aS'./Models_Tprime1000/signal/CMS-HGG_sigfit_packaged_Tprime1000_THQLeptonicTag.root'
p206
aS'./Models_Tprime1000/signal/CMS-HGG_sigfit_packaged_Tprime1000_THQLeptonicTag.root'
p207
aS'./Models_Tprime1000/signal/CMS-HGG_sigfit_packaged_Tprime1000_THQLeptonicTag.root'
p208
aS'./Models_Tprime1000/background/CMS-HGG_multipdf_THQLeptonicTag.root'
p209
ag209
aS'wsig_13TeV:hggpdfsmrel_GG2H_2016_THQLeptonicTag_13TeV'
p210
aS'wsig_13TeV:hggpdfsmrel_THQ_2016_THQLeptonicTag_13TeV'
p211
aS'wsig_13TeV:hggpdfsmrel_TTH_2016_THQLeptonicTag_13TeV'
p212
aS'wsig_13TeV:hggpdfsmrel_Tprime1000_2016_THQLeptonicTag_13TeV'
p213
aS'wsig_13TeV:hggpdfsmrel_VBF_2016_THQLeptonicTag_13TeV'
p214
aS'wsig_13TeV:hggpdfsmrel_VH_2016_THQLeptonicTag_13TeV'
p215
aS'wsig_13TeV:hggpdfsmrel_GG2H_2017_THQLeptonicTag_13TeV'
p216
aS'wsig_13TeV:hggpdfsmrel_THQ_2017_THQLeptonicTag_13TeV'
p217
aS'wsig_13TeV:hggpdfsmrel_TTH_2017_THQLeptonicTag_13TeV'
p218
aS'wsig_13TeV:hggpdfsmrel_Tprime1000_2017_THQLeptonicTag_13TeV'
p219
aS'wsig_13TeV:hggpdfsmrel_VBF_2017_THQLeptonicTag_13TeV'
p220
aS'wsig_13TeV:hggpdfsmrel_VH_2017_THQLeptonicTag_13TeV'
p221
aS'wsig_13TeV:hggpdfsmrel_GG2H_2018_THQLeptonicTag_13TeV'
p222
aS'wsig_13TeV:hggpdfsmrel_THQ_2018_THQLeptonicTag_13TeV'
p223
aS'wsig_13TeV:hggpdfsmrel_TTH_2018_THQLeptonicTag_13TeV'
p224
aS'wsig_13TeV:hggpdfsmrel_Tprime1000_2018_THQLeptonicTag_13TeV'
p225
aS'wsig_13TeV:hggpdfsmrel_VBF_2018_THQLeptonicTag_13TeV'
p226
aS'wsig_13TeV:hggpdfsmrel_VH_2018_THQLeptonicTag_13TeV'
p227
aS'multipdf:CMS_hgg_THQLeptonicTag_13TeV_bkgshape'
p228
aS'multipdf:roohist_data_mass_THQLeptonicTag'
p229
aF5.8802368585020304e-05
aF0.001803501989383182
aF0.013151109627008495
aF0.0021580100995402043
aF0.00014748854443169535
aF0.0007573708229671183
aF9.797421444091015e-05
aF0.0020841405783151856
aF0.012185622085098657
aF0.002382934764071365
aF0.000203614966267196
aF0.0019958267630499904
aF0.00011382147386029828
aF0.0022141916919302673
aF0.013599325748600677
aF0.0025403015404599216
aF0.0002589017049103859
aF0.0019493206173137878
ag153
ag153
aF1.1495495314001807e-07
aF1.6665432203442401e-10
aF9.187428497116427e-07
aF1.9262386490069043e-10
aF1.0661657430715759e-08
aF9.72899960666269e-08
aF9.066125192177769e-08
aF1.8353777163933682e-10
aF3.573080517984516e-07
aF1.9614360905719154e-10
aF9.84163066583021e-09
aF9.888934353722033e-08
aF5.379284528796417e-08
aF2.0693545319870454e-10
aF4.6108270752634397e-07
aF2.2306933435453013e-10
aF1.5084371611598075e-08
aF1.297951038257247e-07
ag153
ag153
aF6.832377210752192e-05
aF0.0019154689065089144
aF0.013949254049893996
aF0.002290385624125273
aF0.00015787865487655757
aF0.0008492771740140586
aF0.00022859091178457664
aF0.002188907893561108
aF0.012470717516218834
aF0.002461491779068912
aF0.00022148044084207685
aF0.0018702037991460427
aF0.00027599954781369005
aF0.002222045129509687
aF0.012747615352952242
aF0.0024892803583593673
aF0.00019370715841883038
aF0.0017501208704272945
ag153
ag153
aF5.8802368585020304e-05
aF0.0018035262013704144
aF0.013151261571800615
aF0.002158030581724165
aF0.00014749738943452587
aF0.0007573637605377023
aF9.864032545488965e-05
aF0.0020984775305350947
aF0.012269589788370306
aF0.002399868355617944
aF0.00020509986826851482
aF0.0020091664541959046
aF0.00011382147386029828
aF0.002214218446261571
aF0.013599479620825923
aF0.0025403230839614083
aF0.00025890362260320857
aF0.001949344561135614
ag153
ag153
aF5.8802368585020304e-05
aF0.0018034777514759908
aF0.01315095754098824
aF0.002157989594430808
aF0.00014747968810007743
aF0.0007573778858178357
aF9.731053333802286e-05
aF0.0020698534633923214
aF0.012101946244026753
aF0.002366061873062789
aF0.00020213570814119728
aF0.001982531947300426
aF0.00011382147386029828
aF0.002214164910454614
aF0.013599171724945725
aF0.002540279974184975
aF0.00025889978716878804
aF0.0019492966532349727
ag153
ag153
aF5.885387841587857e-05
aF0.0018090536046490818
aF0.013187661170392492
aF0.002163721447226879
aF0.00014835099191989984
aF0.0007591129136311735
aF9.769833196813233e-05
aF0.002112881907529937
aF0.01235129210549315
aF0.0024140671431862435
aF0.00020581476752557762
aF0.0020188777742639673
aF0.00011446538952630478
aF0.002231399035362675
aF0.013704055725679152
aF0.0025587456042986704
aF0.00026159662605743713
aF0.001965500412693708
ag153
ag153
aF5.8754068050403474e-05
aF0.0017979617354616359
aF0.013114619128191386
aF0.0021523090830496655
aF0.00014662846265790157
aF0.0007556282481812819
aF9.824167970678537e-05
aF0.002055592271515407
aF0.012021019234438452
aF0.0023520017683521786
aF0.00020142938409490203
aF0.0019729151772407347
aF0.0001131751091400552
aF0.0021970569694871626
aF0.01349503291684475
aF0.0025219301510310934
aF0.00025622080004271316
aF0.0019332110713815775
ag153
ag153
aF5.885721862399465e-05
aF0.0018069977849526693
aF0.013173956838566519
aF0.002161661630863969
aF0.00014815419442562388
aF0.0007581533086838467
aF9.938039967895992e-05
aF0.0020900759704370383
aF0.01221918507528253
aF0.0023888516256218117
aF0.00020426305277601296
aF0.0020025595127335003
aF0.00011392768638071983
aF0.0022178617683787623
aF0.013621299776945034
aF0.0025439949752029574
aF0.0002594106981581873
aF0.001953179361370619
ag153
ag153
aF5.874779560557208e-05
aF0.0018000098611465414
aF0.013128281609758081
aF0.002154361846195694
aF0.00014682368568113305
aF0.0007565879273539707
aF9.657064230123456e-05
aF0.00207821464226767
aF0.012152112517254074
aF0.002377026060645326
aF0.00020296845492321012
aF0.0019891043804613124
aF0.00011371504548207056
aF0.0022105250774909248
aF0.013577370823424728
aF0.0025366111407219647
aF0.0002583929149413114
aF0.0019454648803659143
ag153
ag153
aF5.89245755506704e-05
aF0.001807402184977056
aF0.013176802924428712
aF0.002162535131954439
aF0.00014781004288825982
aF0.0007588834998933114
aF9.847744987468306e-05
aF0.0020896090365642122
aF0.012216617026644568
aF0.0023887771184623614
aF0.00020416190885534356
aF0.002001680079408285
aF0.00011414876301593327
aF0.002219131525530939
aF0.013629158730518768
aF0.00254578013565861
aF0.0002595311742092017
aF0.001954114265267481
ag153
ag153
aF5.8680283294289856e-05
aF0.0017996060334569046
aF0.013125441744414029
aF0.0021534898671907656
aF0.0001471674043743677
aF0.0007558596640128124
aF9.747181209950073e-05
aF0.002078679331263923
aF0.012154665803071377
aF0.00237709969393328
aF0.00020306872497257198
aF0.001989981372819193
aF0.00011349461271244486
aF0.0022092574085562306
aF0.01356952542556105
aF0.002534828907566131
aF0.0002582729925316905
aF0.0019445331361027348
ag153
ag153
aF6.309019772758879e-05
aF0.0018132084905723323
aF0.013220728160344553
aF0.002169882180116838
aF0.00014801914084672262
aF0.0007588376627690429
aF9.808430538351594e-05
aF0.002085294478173603
aF0.012192062681985798
aF0.0023841398067958115
aF0.0002044436831556479
aF0.0019968519471704523
aF0.00011631047147561498
aF0.0022197043204364316
aF0.013636410342533807
aF0.002546871783761663
aF0.00025867284915665823
aF0.0019555752741687816
ag153
ag153
aF5.4514539442451795e-05
aF0.0017937963818796822
aF0.013081558049781719
aF0.0021461394573862305
aF0.00014695795002656346
aF0.0007559039753754298
aF9.786412479088216e-05
aF0.002082986800860353
aF0.012179181818274959
aF0.002381729771472293
aF0.00020278625840945127
aF0.001994801663534563
aF0.0001113324706532901
aF0.002208679341589441
aF0.013562245912707301
aF0.0025337317814122123
aF0.0002591303317561276
aF0.001943068508099541
ag153
ag153
aF6.066152405086384e-05
aF0.0018060637090046875
aF0.013170621278769825
aF0.0021609645730593548
aF0.0001474547668171632
aF0.0007585282378916683
aF9.787444975042933e-05
aF0.002086880443419977
aF0.012202227935928539
aF0.0023858640187945455
aF0.00020454299920785724
aF0.002000622308602351
aF0.0001143572219295432
aF0.002215242224306459
aF0.01360680629674143
aF0.002541472060841179
aF0.00025915482642029395
aF0.0019500833765614739
ag153
ag153
aF5.694323420825347e-05
aF0.0018009404236659205
aF0.01313159264090686
aF0.0021550557770139388
aF0.00014752231733203833
aF0.0007562134064761829
aF9.807397469757063e-05
aF0.0020814011873977905
aF0.012169013300674669
aF0.0023800056731152373
aF0.00020268695050664742
aF0.001991031302710431
aF0.00011328571523432646
aF0.002213141177848315
aF0.013591845934265127
aF0.002539131053604871
aF0.0002586482191392494
aF0.0019485578417836893
ag153
ag153
aF5.697074859759391e-05
aF0.001814984817716007
aF0.01326943653018381
aF0.0021724658280234234
aF0.00014873795750827755
aF0.0007624862205831452
aF0.00010329572751723933
aF0.002094711395526625
aF0.012274462217195957
aF0.0023965096846526148
aF0.00020756928650864253
aF0.0020030561657397904
aF0.00011573421262199343
aF0.0022299774259042
aF0.013755090420988856
aF0.0025604449771036274
aF0.00026128329608783265
aF0.00196073479481333
ag153
ag153
aF6.063398857244668e-05
aF0.0017920196864293439
aF0.01303284758237156
aF0.002143555462314793
aF0.00014623912904252335
aF0.0007522450414587194
aF9.265272307651688e-05
aF0.0020735699822287267
aF0.012096811140797492
aF0.002369360771128467
aF0.00019966065416962865
aF0.001988602271425933
aF0.00011190870632128622
aF0.002198408464031618
aF0.01344379855399397
aF0.0025201599156876933
aF0.0002565201256900155
aF0.0019379117570506035
ag153
ag153
aF5.709191576783862e-05
aF0.0018084983541542296
aF0.013198220794491648
aF0.0021642844193240046
aF0.00014989229621927038
aF0.0007615977650129528
aF0.00010408934080113445
aF0.0020918037044466175
aF0.012240208837230832
aF0.0023921662401809327
aF0.00020830687127632876
aF0.0020055610982570157
aF0.00011542474566812182
aF0.0022187202724945907
aF0.013630501795242802
aF0.0025459071310838933
aF0.00026074251146512785
aF0.0019531492406469468
ag153
ag153
aF6.051278157592871e-05
aF0.0017985059071298245
aF0.013104020305576449
aF0.0021517363146502295
aF0.00014508479027276872
aF0.0007531424223943452
aF9.185906158490379e-05
aF0.0020764778260631894
aF0.012131025992405266
aF0.0023737047031684717
aF0.0001989230742891799
aF0.0019860940525226693
aF0.00011221820247835948
aF0.002209663387091562
aF0.013568152905920953
aF0.0025346963687664734
aF0.0002570609032006042
aF0.0019454933050677596
ag153
ag153
aF5.627062031398959e-05
aF0.0018049934681525573
aF0.013137382441079364
aF0.0021602448270376024
aF0.0001438656272774764
aF0.0007622214369090279
aF0.00010704176582692181
aF0.002076416374843573
aF0.012127445330937937
aF0.0023699154332097756
aF0.00020845244782251174
aF0.001982352707862886
aF0.00010967425516295532
aF0.0022091625948324057
aF0.01359840057784705
aF0.002528359987266805
aF0.0002602714568211403
aF0.0019421995530725282
ag153
ag153
aF5.8588685745968096e-05
aF0.001803572900213124
aF0.013198831118719724
aF0.002157620124186096
aF0.00014980693099550535
aF0.0007592917463453462
aF0.00010160379150391232
aF0.0020945155269040915
aF0.01225070850876646
aF0.0023997528812106958
aF0.00020313971007558025
aF0.0020078002780320675
aF0.0001076320057074674
aF0.0022291771391000723
aF0.013735198379926051
aF0.0025635935989933756
aF0.0002556288682687381
aF0.001983610895222906
ag153
ag153
aF0.00011936426744796336
aF0.001797128514326212
aF0.01293183374407647
aF0.002160370346178112
aF0.00014748854443169535
aF0.0007596260401356858
aF0.00028519293846329674
aF0.002085975285627484
aF0.011956896953279283
aF0.002386851144631663
aF0.00018856016231438844
aF0.0020921398181599216
aF0.00022580529184779152
aF0.0022209748578880806
aF0.01382340106601987
aF0.0025493458275533953
aF162.0
aF0.002089956376948976
ag153
ag153
aF0.00011936426744796336
aF0.0018033796334582554
aF0.013472410238341226
aF0.002164906815293445
aF0.00014748854443169535
aF0.0007796834517108664
aF0.0002949421977973543
aF0.002075267839597217
aF0.012185914213887372
aF0.002376919891720064
aF0.00020370864785945741
aF0.0020246569483788335
aF0.0003276194474892691
aF0.0022154042839765964
aF0.013864849563105963
aF0.002539232213965903
aF162.0
aF0.0019198097697881167
ag153
ag153
aF0.00011936426744796336
aF0.001824436132632442
aF0.013713950841582445
aF0.0021833532247166818
aF0.00014748854443169535
aF0.0006652715707247125
aF0.000402345962356776
aF0.002106567740693066
aF0.012564725450602054
aF0.0024145175667698027
aF0.00020512482751655625
aF0.0020947625571352546
aF0.0003276194474892691
aF0.0022658999981466366
aF0.01447354755100605
aF0.002594571858473671
aF162.0
aF0.002085600527607312
ag153
ag153
aF0.00011936426744796336
aF0.0017796829876474893
aF0.012643186029167808
aF0.0021357903644168633
aF0.00014748854443169535
aF0.0007675164915781352
aF0.0002021919353865087
aF0.002042851901734366
aF0.01135667777020899
aF0.0023427589363862467
aF0.0001762805459293304
aF0.002033991412645264
aF0.00022580529184779152
aF0.00215905524129667
aF0.012997519977034244
aF0.002474878178663431
aF162.0
aF0.001928258909174474
ag153
ag153
aF0.00011936426744796336
aF0.001845510672655832
aF0.013317607840663825
aF0.0021840206350889277
aF0.00017916954817920328
aF0.0009136602424320017
aF0.0002947129905805923
aF0.00214570377022838
aF0.013072520845526014
aF0.0024273172669282417
aF0.00020881200089206686
aF0.002591622161162377
aF0.0004256583997630514
aF0.002295935869025101
aF0.013760026698946604
aF0.002583609786022123
aF161.0
aF0.0023792540669091977
ag153
ag153
aF0.00012321570829953998
aF0.001756425621886635
aF0.012840943165716823
aF0.002128734731276019
aF0.00014736550355465283
aF0.0006171055062083042
aF0.00027792802575277165
aF0.0020048415522033736
aF0.011691423258753275
aF0.0023288288021525716
aF0.0002311432544956915
aF0.0018223653833047138
aF0.0001118822256103158
aF0.0021470153367815215
aF0.01350805140191369
aF0.002501894666330884
aF161.0
aF0.0014201147005223902
ag153
ag153
aF0.00011936426744796336
aF0.0018084993654550671
aF0.012973194230964324
aF0.0021693847874613634
aF0.00017904650730216076
aF0.0008095069074443018
aF0.0004098275094293058
aF0.0020821806444359936
aF0.012108470612702149
aF0.0023891730095861874
aF0.0002102969228872098
aF0.002287431298100273
aF0.0003284820995759219
aF0.0022333974746295837
aF0.013634272984745621
aF0.002552604261580882
aF161.0
aF0.0019115620543743717
ag153
ag153
aF0.00012321570829953998
aF0.0017889937120355442
aF0.013023832195282026
aF0.0021561806481437476
aF0.00011828272869607304
aF0.0007062517048694872
aF0.0001645870870561339
aF0.002072524528806241
aF0.012002768829461274
aF0.0023711633783030095
aF0.00023268447057489539
aF0.0019000698202944477
aF0.00022580529184779152
aF0.002207230337482713
aF0.013773911235148262
aF0.002543240379910827
aF161.0
aF0.0017478816071161418
ag153
ag153
aF0.00011936426744796336
aF0.001806175083626252
aF0.01291679847240168
aF0.002156266156528995
aF0.00014748854443169535
aF0.0007270835670993847
aF0.000402345962356776
aF0.002079325162238632
aF0.011986984472287077
aF0.002375020157511898
aF0.0001767202302289661
aF0.002080437262520718
aF0.0003276194474892691
aF0.002222035706722636
aF0.013586237650997646
aF0.002533300507881364
aF161.0
aF0.002009775539590919
ag153
ag153
aF0.00011936426744796336
aF0.0018056428633133302
aF0.013227417336162617
aF0.0021579120776552933
aF0.00014748854443169535
aF0.0007379398913514024
aF0.00028519293846329674
aF0.002082953086453898
aF0.01199418229020921
aF0.002378306018524512
aF0.00018856016231438844
aF0.0018872638165703393
aF0.0003276194474892691
aF0.002227069359637568
aF0.013796701535738976
aF0.0025376764293589815
aF162.0
aF0.0018689412509047543
ag153
ag153
aF0.00011936426744796336
aF0.0018098231501344313
aF0.012948361061175362
aF0.0021538133504384674
aF0.00014748854443169535
aF0.000645523843914475
aF0.0002949421977973543
aF0.002085990143072536
aF0.012429834239583215
aF0.002371889745109712
aF0.00018856016231438844
aF0.0019523617529557669
aF0.0003276194474892691
aF0.0022233772180761946
aF0.013662396363997686
aF0.0025322615144922622
aF162.0
aF0.0020915070990668028
ag153
ag153
aF0.00011936426744796336
aF0.0017993582377826452
aF0.013021276059676623
aF0.002167663703288643
aF0.00014748854443169535
aF0.0007416296113120779
aF0.000402345962356776
aF0.0020738639896684674
aF0.011922636354711358
aF0.0023853813784171507
aF0.00020378293993417174
aF0.0019875019033861463
aF0.0003276194474892691
aF0.0022110676261171136
aF0.01385648318728272
aF0.002554485157762798
aF162.0
aF0.0019808755887424923
ag153
ag153
aF0.00011936426744796336
aF0.0018032115976481453
aF0.012906810119543977
aF0.00215859115740491
aF0.00014748854443169535
aF0.0007664257069706082
aF0.000402345962356776
aF0.00207197415489091
aF0.011837130833782794
aF0.0023680934697232203
aF0.00018856016231438844
aF0.002010961882660922
aF0.0003276194474892691
aF0.0022240506930089055
aF0.013812267164212244
aF0.0025369254023317467
aF162.0
aF0.0019438538374743075
ag153
ag153
aF0.00011936426744796336
aF0.0018042990103268389
aF0.012751849595600717
aF0.0021602539401960608
aF0.00014748854443169535
aF0.000718995480511353
aF0.00036596831341739744
aF0.002076242815377327
aF0.011915000389990382
aF0.002380502331440937
aF0.00021893142547924072
aF0.0020217974897605018
aF0.00022580529184779152
aF0.0022185376313075267
aF0.013823916015098803
aF0.0025411266291861523
aF162.0
aF0.002034160056609835
ag153
ag153
atp230
ba(lp231
g15
(g16
(dp232
g18
g19
(g20
(I0
tp233
g22
tp234
Rp235
(I1
(I1
tp236
g29
I00
(lp237
g43
atp238
bsg80
Nstp239
Rp240
ag15
(g16
(dp241
g18
g19
(g20
(I0
tp242
g22
tp243
Rp244
(I1
(I45
tp245
g29
I00
(lp246
g33
ag34
ag35
ag36
ag37
ag38
ag39
ag40
ag41
ag42
ag44
ag45
ag46
ag47
ag48
ag49
ag50
ag51
ag52
ag53
ag54
ag55
ag56
ag57
ag58
ag59
ag60
ag61
ag62
ag63
ag64
ag65
ag66
ag67
ag68
ag69
ag70
ag71
ag72
ag73
ag74
ag75
ag76
ag77
ag78
atp247
bsg80
Nstp248
Rp249
a(dp250
S'0.14.1'
p251
(dp252
S'axes'
p253
g14
sS'blocks'
p254
(lp255
(dp256
S'mgr_locs'
p257
c__builtin__
slice
p258
(I10
I11
I1
tp259
Rp260
sS'values'
p261
g101
sa(dp262
g257
g19
(g20
(I0
tp263
g22
tp264
Rp265
(I1
(I45
tp266
g91
I00
S'\x00\x00\x00\x00\x00\x00\x00\x00\x01\x00\x00\x00\x00\x00\x00\x00\x02\x00\x00\x00\x00\x00\x00\x00\x03\x00\x00\x00\x00\x00\x00\x00\x04\x00\x00\x00\x00\x00\x00\x00\x05\x00\x00\x00\x00\x00\x00\x00\x06\x00\x00\x00\x00\x00\x00\x00\x07\x00\x00\x00\x00\x00\x00\x00\x08\x00\x00\x00\x00\x00\x00\x00\t\x00\x00\x00\x00\x00\x00\x00\x0b\x00\x00\x00\x00\x00\x00\x00\x0c\x00\x00\x00\x00\x00\x00\x00\r\x00\x00\x00\x00\x00\x00\x00\x0e\x00\x00\x00\x00\x00\x00\x00\x0f\x00\x00\x00\x00\x00\x00\x00\x10\x00\x00\x00\x00\x00\x00\x00\x11\x00\x00\x00\x00\x00\x00\x00\x12\x00\x00\x00\x00\x00\x00\x00\x13\x00\x00\x00\x00\x00\x00\x00\x14\x00\x00\x00\x00\x00\x00\x00\x15\x00\x00\x00\x00\x00\x00\x00\x16\x00\x00\x00\x00\x00\x00\x00\x17\x00\x00\x00\x00\x00\x00\x00\x18\x00\x00\x00\x00\x00\x00\x00\x19\x00\x00\x00\x00\x00\x00\x00\x1a\x00\x00\x00\x00\x00\x00\x00\x1b\x00\x00\x00\x00\x00\x00\x00\x1c\x00\x00\x00\x00\x00\x00\x00\x1d\x00\x00\x00\x00\x00\x00\x00\x1e\x00\x00\x00\x00\x00\x00\x00\x1f\x00\x00\x00\x00\x00\x00\x00 \x00\x00\x00\x00\x00\x00\x00!\x00\x00\x00\x00\x00\x00\x00"\x00\x00\x00\x00\x00\x00\x00#\x00\x00\x00\x00\x00\x00\x00$\x00\x00\x00\x00\x00\x00\x00%\x00\x00\x00\x00\x00\x00\x00&\x00\x00\x00\x00\x00\x00\x00\'\x00\x00\x00\x00\x00\x00\x00(\x00\x00\x00\x00\x00\x00\x00)\x00\x00\x00\x00\x00\x00\x00*\x00\x00\x00\x00\x00\x00\x00+\x00\x00\x00\x00\x00\x00\x00,\x00\x00\x00\x00\x00\x00\x00-\x00\x00\x00\x00\x00\x00\x00'
p267
tp268
bsg261
g112
sasstp269
bsb.