ccopy_reg
_reconstructor
p0
(cpandas.core.frame
DataFrame
p1
c__builtin__
object
p2
Ntp3
Rp4
(dp5
S'_metadata'
p6
(lp7
sS'_typ'
p8
S'dataframe'
p9
sS'_data'
p10
g0
(cpandas.core.internals
BlockManager
p11
g2
Ntp12
Rp13
((lp14
cpandas.core.indexes.base
_new_Index
p15
(cpandas.core.indexes.base
Index
p16
(dp17
S'data'
p18
cnumpy.core.multiarray
_reconstruct
p19
(cnumpy
ndarray
p20
(I0
tp21
S'b'
p22
tp23
Rp24
(I1
(I46
tp25
cnumpy
dtype
p26
(S'O8'
p27
I0
I1
tp28
Rp29
(I3
S'|'
p30
NNNI-1
I-1
I63
tp31
bI00
(lp32
S'year'
p33
aS'type'
p34
aS'procOriginal'
p35
aS'proc'
p36
aS'proc_s0'
p37
aS'cat'
p38
aS'inputWSFile'
p39
aS'nominalDataName'
p40
aS'modelWSFile'
p41
aS'model'
p42
aS'rate'
p43
aS'nominal_yield'
p44
aS'sumw2'
p45
aS'nominal_yield_COWCorr'
p46
aS'LooseMvaSF_up_yield'
p47
aS'LooseMvaSF_down_yield'
p48
aS'PreselSF_up_yield'
p49
aS'PreselSF_down_yield'
p50
aS'electronVetoSF_up_yield'
p51
aS'electronVetoSF_down_yield'
p52
aS'TriggerWeight_up_yield'
p53
aS'TriggerWeight_down_yield'
p54
aS'MuonIDWeight_up_yield'
p55
aS'MuonIDWeight_down_yield'
p56
aS'MuonIsoWeight_up_yield'
p57
aS'MuonIsoWeight_down_yield'
p58
aS'ElectronIDWeight_up_yield'
p59
aS'ElectronIDWeight_down_yield'
p60
aS'ElectronRecoWeight_up_yield'
p61
aS'ElectronRecoWeight_down_yield'
p62
aS'JetBTagReshapeWeight_up_yield'
p63
aS'JetBTagReshapeWeight_down_yield'
p64
aS'SigmaEOverEShift_up_yield'
p65
aS'SigmaEOverEShift_down_yield'
p66
aS'MvaShift_up_yield'
p67
aS'MvaShift_down_yield'
p68
aS'JEC_up_yield'
p69
aS'JEC_down_yield'
p70
aS'JER_up_yield'
p71
aS'JER_down_yield'
p72
aS'metJecUncertainty_up_yield'
p73
aS'metJecUncertainty_down_yield'
p74
aS'metPhoUncertainty_up_yield'
p75
aS'metPhoUncertainty_down_yield'
p76
aS'metUncUncertainty_up_yield'
p77
aS'metUncUncertainty_down_yield'
p78
atp79
bsS'name'
p80
Nstp81
Rp82
ag15
(cpandas.core.indexes.numeric
Int64Index
p83
(dp84
g18
g19
(g20
(I0
tp85
g22
tp86
Rp87
(I1
(I20
tp88
g26
(S'i8'
p89
I0
I1
tp90
Rp91
(I3
S'<'
p92
NNNI-1
I-1
I0
tp93
bI00
S'\x00\x00\x00\x00\x00\x00\x00\x00\x01\x00\x00\x00\x00\x00\x00\x00\x02\x00\x00\x00\x00\x00\x00\x00\x03\x00\x00\x00\x00\x00\x00\x00\x04\x00\x00\x00\x00\x00\x00\x00\x05\x00\x00\x00\x00\x00\x00\x00\x06\x00\x00\x00\x00\x00\x00\x00\x07\x00\x00\x00\x00\x00\x00\x00\x08\x00\x00\x00\x00\x00\x00\x00\t\x00\x00\x00\x00\x00\x00\x00\n\x00\x00\x00\x00\x00\x00\x00\x0b\x00\x00\x00\x00\x00\x00\x00\x0c\x00\x00\x00\x00\x00\x00\x00\r\x00\x00\x00\x00\x00\x00\x00\x0e\x00\x00\x00\x00\x00\x00\x00\x0f\x00\x00\x00\x00\x00\x00\x00\x10\x00\x00\x00\x00\x00\x00\x00\x11\x00\x00\x00\x00\x00\x00\x00\x12\x00\x00\x00\x00\x00\x00\x00\x13\x00\x00\x00\x00\x00\x00\x00'
p94
tp95
bsg80
Nstp96
Rp97
a(lp98
g19
(g20
(I0
tp99
g22
tp100
Rp101
(I1
(I1
I20
tp102
g26
(S'f8'
p103
I0
I1
tp104
Rp105
(I3
S'<'
p106
NNNI-1
I-1
I0
tp107
bI00
S'\x00\x00\x00\x00@\xbd\xe1@\x00\x00\x00\x00@\xbd\xe1@\x00\x00\x00\x00@\xbd\xe1@\x00\x00\x00\x00@\xbd\xe1@\x00\x00\x00\x00@\xbd\xe1@\x00\x00\x00\x00@\xbd\xe1@\x00\x00\x00\x00\x00A\xe4@\x00\x00\x00\x00\x00A\xe4@\x00\x00\x00\x00\x00A\xe4@\x00\x00\x00\x00\x00A\xe4@\x00\x00\x00\x00\x00A\xe4@\x00\x00\x00\x00\x00A\xe4@\x00\x00\x00\x00\xc06\xed@\x00\x00\x00\x00\xc06\xed@\x00\x00\x00\x00\xc06\xed@\x00\x00\x00\x00\xc06\xed@\x00\x00\x00\x00\xc06\xed@\x00\x00\x00\x00\xc06\xed@\x00\x00\x00\x00\x00\x00\xf0?\x00\x00\x00\x00\x00\x00\xf0\xbf'
p108
tp109
bag19
(g20
(I0
tp110
g22
tp111
Rp112
(I1
(I45
I20
tp113
g29
I00
(lp114
S'2016'
p115
ag115
ag115
ag115
ag115
ag115
aS'2017'
p116
ag116
ag116
ag116
ag116
ag116
aS'2018'
p117
ag117
ag117
ag117
ag117
ag117
aS'merged'
p118
ag118
aS'sig'
p119
ag119
ag119
ag119
ag119
ag119
ag119
ag119
ag119
ag119
ag119
ag119
ag119
ag119
ag119
ag119
ag119
ag119
aS'bkg'
p120
ag18
aS'GG2H'
p121
aS'THQ'
p122
aS'TTH'
p123
aS'Tprime1100'
p124
aS'VBF'
p125
aS'VH'
p126
ag121
ag122
ag123
ag124
ag125
ag126
ag121
ag122
ag123
ag124
ag125
ag126
aS'bkg_mass'
p127
aS'data_obs'
p128
aS'ggH_2016_hgg'
p129
aS'tHq_2016_hgg'
p130
aS'ttH_2016_hgg'
p131
aS'TvlqM1100_2016_hgg'
p132
aS'qqH_2016_hgg'
p133
aS'VH_2016_hgg'
p134
aS'ggH_2017_hgg'
p135
aS'tHq_2017_hgg'
p136
aS'ttH_2017_hgg'
p137
aS'TvlqM1100_2017_hgg'
p138
aS'qqH_2017_hgg'
p139
aS'VH_2017_hgg'
p140
aS'ggH_2018_hgg'
p141
aS'tHq_2018_hgg'
p142
aS'ttH_2018_hgg'
p143
aS'TvlqM1100_2018_hgg'
p144
aS'qqH_2018_hgg'
p145
aS'VH_2018_hgg'
p146
ag127
ag128
aS'ggh'
p147
aS'thq'
p148
aS'tth'
p149
aS'TprimeM1100'
p150
aS'vbf'
p151
aS'vh'
p152
ag147
ag148
ag149
ag150
ag151
ag152
ag147
ag148
ag149
ag150
ag151
ag152
aS'-'
p153
ag153
aS'THQHadronicTag'
p154
ag154
ag154
ag154
ag154
ag154
ag154
ag154
ag154
ag154
ag154
ag154
ag154
ag154
ag154
ag154
ag154
ag154
ag154
ag154
aS'/eos/user/p/prsaha/Tprime_analysis/FinalFit_inputs/UL/v2/1100/2016/output_GluGluHToGG_M125_TuneCP5Down_13TeV-amcatnloFXFX-pythia8_GG2H.root'
p155
aS'/eos/user/p/prsaha/Tprime_analysis/FinalFit_inputs/UL/v2/1100/2016/output_THQ_ctcvcp_HToGG_M125_13TeV-madgraph-pythia8_THQ.root'
p156
aS'/eos/user/p/prsaha/Tprime_analysis/FinalFit_inputs/UL/v2/1100/2016/output_ttHJetToGG_M125_13TeV_amcatnloFXFX_madspin_pythia8_TTH.root'
p157
aS'/eos/user/p/prsaha/Tprime_analysis/FinalFit_inputs/UL/v2/1100/2016/output_TprimeBToTH_Hgg_M125_M-1100_LH_TuneCP5_PSweights_13TeV-madgraph_pythia8_Tprime1100.root'
p158
aS'/eos/user/p/prsaha/Tprime_analysis/FinalFit_inputs/UL/v2/1100/2016/output_VBFHToGG_M125_13TeV_amcatnlo_pythia8_VBF.root'
p159
aS'/eos/user/p/prsaha/Tprime_analysis/FinalFit_inputs/UL/v2/1100/2016/output_VHToGG_M125_13TeV_amcatnloFXFX_madspin_pythia8_VH.root'
p160
aS'/eos/user/p/prsaha/Tprime_analysis/FinalFit_inputs/UL/v2/1100/2017/output_GluGluHToGG_M125_TuneCP5Down_13TeV-amcatnloFXFX-pythia8_GG2H.root'
p161
aS'/eos/user/p/prsaha/Tprime_analysis/FinalFit_inputs/UL/v2/1100/2017/output_THQ_ctcvcp_HToGG_M125_13TeV-madgraph-pythia8_THQ.root'
p162
aS'/eos/user/p/prsaha/Tprime_analysis/FinalFit_inputs/UL/v2/1100/2017/output_ttHJetToGG_M125_13TeV_amcatnloFXFX_madspin_pythia8_TTH.root'
p163
aS'/eos/user/p/prsaha/Tprime_analysis/FinalFit_inputs/UL/v2/1100/2017/output_TprimeBToTH_Hgg_M125_M-1100_LH_TuneCP5_PSweights_13TeV-madgraph_pythia8_Tprime1100.root'
p164
aS'/eos/user/p/prsaha/Tprime_analysis/FinalFit_inputs/UL/v2/1100/2017/output_VBFHToGG_M125_13TeV_amcatnlo_pythia8_VBF.root'
p165
aS'/eos/user/p/prsaha/Tprime_analysis/FinalFit_inputs/UL/v2/1100/2017/output_VHToGG_M125_13TeV_amcatnloFXFX_madspin_pythia8_VH.root'
p166
aS'/eos/user/p/prsaha/Tprime_analysis/FinalFit_inputs/UL/v2/1100/2018/output_GluGluHToGG_M125_TuneCP5Down_13TeV-amcatnloFXFX-pythia8_GG2H.root'
p167
aS'/eos/user/p/prsaha/Tprime_analysis/FinalFit_inputs/UL/v2/1100/2018/output_THQ_ctcvcp_HToGG_M125_13TeV-madgraph-pythia8_THQ.root'
p168
aS'/eos/user/p/prsaha/Tprime_analysis/FinalFit_inputs/UL/v2/1100/2018/output_ttHJetToGG_M125_13TeV_amcatnloFXFX_madspin_pythia8_TTH.root'
p169
aS'/eos/user/p/prsaha/Tprime_analysis/FinalFit_inputs/UL/v2/1100/2018/output_TprimeBToTH_Hgg_M125_M-1100_LH_TuneCP5_PSweights_13TeV-madgraph_pythia8_Tprime1100.root'
p170
aS'/eos/user/p/prsaha/Tprime_analysis/FinalFit_inputs/UL/v2/1100/2018/output_VBFHToGG_M125_13TeV_amcatnlo_pythia8_VBF.root'
p171
aS'/eos/user/p/prsaha/Tprime_analysis/FinalFit_inputs/UL/v2/1100/2018/output_VHToGG_M125_13TeV_amcatnloFXFX_madspin_pythia8_VH.root'
p172
ag153
ag153
aS'ggh_125_13TeV_THQHadronicTag'
p173
aS'thq_125_13TeV_THQHadronicTag'
p174
aS'tth_125_13TeV_THQHadronicTag'
p175
aS'TprimeM1100_125_13TeV_THQHadronicTag'
p176
aS'vbf_125_13TeV_THQHadronicTag'
p177
aS'vh_125_13TeV_THQHadronicTag'
p178
aS'ggh_125_13TeV_THQHadronicTag'
p179
aS'thq_125_13TeV_THQHadronicTag'
p180
aS'tth_125_13TeV_THQHadronicTag'
p181
aS'TprimeM1100_125_13TeV_THQHadronicTag'
p182
aS'vbf_125_13TeV_THQHadronicTag'
p183
aS'vh_125_13TeV_THQHadronicTag'
p184
aS'ggh_125_13TeV_THQHadronicTag'
p185
aS'thq_125_13TeV_THQHadronicTag'
p186
aS'tth_125_13TeV_THQHadronicTag'
p187
aS'TprimeM1100_125_13TeV_THQHadronicTag'
p188
aS'vbf_125_13TeV_THQHadronicTag'
p189
aS'vh_125_13TeV_THQHadronicTag'
p190
ag153
ag153
aS'./Models_Tprime1100/signal/CMS-HGG_sigfit_packaged_Tprime1100_THQHadronicTag.root'
p191
aS'./Models_Tprime1100/signal/CMS-HGG_sigfit_packaged_Tprime1100_THQHadronicTag.root'
p192
aS'./Models_Tprime1100/signal/CMS-HGG_sigfit_packaged_Tprime1100_THQHadronicTag.root'
p193
aS'./Models_Tprime1100/signal/CMS-HGG_sigfit_packaged_Tprime1100_THQHadronicTag.root'
p194
aS'./Models_Tprime1100/signal/CMS-HGG_sigfit_packaged_Tprime1100_THQHadronicTag.root'
p195
aS'./Models_Tprime1100/signal/CMS-HGG_sigfit_packaged_Tprime1100_THQHadronicTag.root'
p196
aS'./Models_Tprime1100/signal/CMS-HGG_sigfit_packaged_Tprime1100_THQHadronicTag.root'
p197
aS'./Models_Tprime1100/signal/CMS-HGG_sigfit_packaged_Tprime1100_THQHadronicTag.root'
p198
aS'./Models_Tprime1100/signal/CMS-HGG_sigfit_packaged_Tprime1100_THQHadronicTag.root'
p199
aS'./Models_Tprime1100/signal/CMS-HGG_sigfit_packaged_Tprime1100_THQHadronicTag.root'
p200
aS'./Models_Tprime1100/signal/CMS-HGG_sigfit_packaged_Tprime1100_THQHadronicTag.root'
p201
aS'./Models_Tprime1100/signal/CMS-HGG_sigfit_packaged_Tprime1100_THQHadronicTag.root'
p202
aS'./Models_Tprime1100/signal/CMS-HGG_sigfit_packaged_Tprime1100_THQHadronicTag.root'
p203
aS'./Models_Tprime1100/signal/CMS-HGG_sigfit_packaged_Tprime1100_THQHadronicTag.root'
p204
aS'./Models_Tprime1100/signal/CMS-HGG_sigfit_packaged_Tprime1100_THQHadronicTag.root'
p205
aS'./Models_Tprime1100/signal/CMS-HGG_sigfit_packaged_Tprime1100_THQHadronicTag.root'
p206
aS'./Models_Tprime1100/signal/CMS-HGG_sigfit_packaged_Tprime1100_THQHadronicTag.root'
p207
aS'./Models_Tprime1100/signal/CMS-HGG_sigfit_packaged_Tprime1100_THQHadronicTag.root'
p208
aS'./Models_Tprime1100/background/CMS-HGG_multipdf_THQHadronicTag.root'
p209
ag209
aS'wsig_13TeV:hggpdfsmrel_GG2H_2016_THQHadronicTag_13TeV'
p210
aS'wsig_13TeV:hggpdfsmrel_THQ_2016_THQHadronicTag_13TeV'
p211
aS'wsig_13TeV:hggpdfsmrel_TTH_2016_THQHadronicTag_13TeV'
p212
aS'wsig_13TeV:hggpdfsmrel_Tprime1100_2016_THQHadronicTag_13TeV'
p213
aS'wsig_13TeV:hggpdfsmrel_VBF_2016_THQHadronicTag_13TeV'
p214
aS'wsig_13TeV:hggpdfsmrel_VH_2016_THQHadronicTag_13TeV'
p215
aS'wsig_13TeV:hggpdfsmrel_GG2H_2017_THQHadronicTag_13TeV'
p216
aS'wsig_13TeV:hggpdfsmrel_THQ_2017_THQHadronicTag_13TeV'
p217
aS'wsig_13TeV:hggpdfsmrel_TTH_2017_THQHadronicTag_13TeV'
p218
aS'wsig_13TeV:hggpdfsmrel_Tprime1100_2017_THQHadronicTag_13TeV'
p219
aS'wsig_13TeV:hggpdfsmrel_VBF_2017_THQHadronicTag_13TeV'
p220
aS'wsig_13TeV:hggpdfsmrel_VH_2017_THQHadronicTag_13TeV'
p221
aS'wsig_13TeV:hggpdfsmrel_GG2H_2018_THQHadronicTag_13TeV'
p222
aS'wsig_13TeV:hggpdfsmrel_THQ_2018_THQHadronicTag_13TeV'
p223
aS'wsig_13TeV:hggpdfsmrel_TTH_2018_THQHadronicTag_13TeV'
p224
aS'wsig_13TeV:hggpdfsmrel_Tprime1100_2018_THQHadronicTag_13TeV'
p225
aS'wsig_13TeV:hggpdfsmrel_VBF_2018_THQHadronicTag_13TeV'
p226
aS'wsig_13TeV:hggpdfsmrel_VH_2018_THQHadronicTag_13TeV'
p227
aS'multipdf:CMS_hgg_THQHadronicTag_13TeV_bkgshape'
p228
aS'multipdf:roohist_data_mass_THQHadronicTag'
p229
aF0.00374926366154682
aF0.001262011086287023
aF0.005953635561190218
aF0.004752111212078767
aF0.0007507267178681332
aF0.000770925055007865
aF0.0023376618282782147
aF0.0016846841537301316
aF0.005639349850753206
aF0.00516491509882222
aF0.00047843987704254687
aF0.0007460420629286091
aF0.002482463185060624
aF0.001825630701162595
aF0.005244046315056039
aF0.005634046747029942
aF0.0007466652159564546
aF0.001161114919341344
ag153
ag153
aF9.7690826129027e-07
aF1.1963806762917388e-10
aF4.805756424116479e-07
aF4.217532774959362e-10
aF5.245244846548757e-08
aF7.033380087074725e-08
aF2.2595742514392648e-07
aF1.619175081064142e-10
aF1.7263738304925332e-07
aF2.74809496281515e-10
aF2.784317563104761e-08
aF4.2774647608627015e-08
aF3.127324652349076e-07
aF1.9527421908267701e-10
aF2.216993166916458e-07
aF3.3050072874284304e-10
aF4.092077573306124e-08
aF7.68409176401063e-08
ag153
ag153
aF0.01102914836226694
aF0.0013124264186541558
aF0.006041911048190778
aF0.004948499016841793
aF0.0007741760330779485
aF0.0008367415482452755
aF0.008234107255666827
aF0.0016475820195457913
aF0.0052804936478300065
aF0.005005039259509419
aF0.00044259582508502076
aF0.0007140957323161167
aF0.00630354687523325
aF0.0016424023929259106
aF0.004572714449652664
aF0.005053766177482238
aF0.0006072170577401487
aF0.000811584507710088
ag153
ag153
aF0.0037493118952228763
aF0.0012620200068893502
aF0.005953674048350861
aF0.004752144575937668
aF0.0007507368412153924
aF0.0007709294048025951
aF0.0023534526524499272
aF0.0016968479396019095
aF0.005680588217102837
aF0.005202406361378379
aF0.0004818497686898689
aF0.0007516537744577326
aF0.0024824795187160602
aF0.0018256425493765982
aF0.005244080881112295
aF0.0056340835648655985
aF0.0007466716693436588
aF0.0011611282589293543
ag153
ag153
aF0.003749215475952323
aF0.0012620021552456524
aF0.005953597059093492
aF0.004752077808404459
aF0.0007507165926231768
aF0.0007709206991917141
aF0.002321924922211476
aF0.0016725645999295044
aF0.005598263633562023
aF0.005127560761749771
aF0.0004750424030069067
aF0.0007404516195278217
aF0.0024824468296059127
aF0.001825618839208866
aF0.005244011724590211
aF0.005634009884096404
aF0.0007466587581779613
aF0.0011611015658333774
ag153
ag153
aF0.0037620211610220238
aF0.0012651010004681394
aF0.005970762491531716
aF0.0047634125899929805
aF0.0007523400105294311
aF0.0007721938695516032
aF0.0023711544069635725
aF0.0017061599864022883
aF0.005706453045240213
aF0.0052303819052396255
aF0.0004838134234421067
aF0.0007531674969237188
aF0.002499223845265282
aF0.0018383861060997737
aF0.005280596994065055
aF0.005672840157326072
aF0.0007525533012031711
aF0.0011702652350757303
ag153
ag153
aF0.003736533674516599
aF0.001258926276278465
aF0.0059365431913273635
aF0.004740827888944666
aF0.0007491161319498473
aF0.0007696581013412073
aF0.0023044077356475443
aF0.001663342567650189
aF0.005572656119668531
aF0.005099856681488877
aF0.0004730930002461566
aF0.0007389500016907864
aF0.0024657660376623024
aF0.001812923165215653
aF0.005207634884334559
aF0.005595396571149577
aF0.0007408049384313858
aF0.0011520038576141305
ag153
ag153
aF0.003756359823198154
aF0.0012639852398347454
aF0.0059638867107868684
aF0.004759405051088895
aF0.0007518048085917254
aF0.0007715586509219653
aF0.0023436270588324294
aF0.0016885552506083288
aF0.005651706058715557
aF0.005176556171241805
aF0.00047973890277285675
aF0.0007475266710607716
aF0.0024860185855372393
aF0.0018280889170285608
aF0.005250890457544181
aF0.005641458581342136
aF0.0007479104896985163
aF0.001162914103692063
ag153
ag153
aF0.0037421751617831163
aF0.001260038494868808
aF0.0059433939095942636
aF0.00474482300680657
aF0.0007496494136790577
aF0.0007702911754631608
aF0.002331705203800823
aF0.0016808178199855391
aF0.005627009238882501
aF0.005153287929423627
aF0.0004771426874578837
aF0.0007445590242022838
aF0.002478911662242031
aF0.0018231743413499207
aF0.0052372073408060655
aF0.005626640338677707
aF0.0007454213832070385
aF0.0011593172650877833
ag153
ag153
aF0.0037567964694636045
aF0.0012646180375852785
aF0.005966149339980745
aF0.004761870173770024
aF0.0007523111302085602
aF0.000772410369432128
aF0.002343862057274406
aF0.0016886981091330626
aF0.005652936059502885
aF0.00517709220838448
aF0.00047954661641153826
aF0.0007477599950831261
aF0.002487710651556722
aF0.0018294892000463043
aF0.005255240366119083
aF0.005645969576768828
aF0.0007483324820095583
aF0.001163604025756818
ag153
ag153
aF0.0037417385261462248
aF0.0012594068548990394
aF0.005941135129908575
aF0.004742362370341141
aF0.0007491440247094695
aF0.0007694412196332777
aF0.00233146936772768
aF0.0016806750402936451
aF0.005625780266587259
aF0.005152752495408445
aF0.0004773343982104852
aF0.0007443260896340114
aF0.002477221363526128
aF0.0018217763002380423
aF0.005232864458398682
aF0.005622136609666342
aF0.0007449997832130957
aF0.0011586284613736139
ag153
ag153
aF0.00374926366154682
aF0.001262011086287023
aF0.005953635561190218
aF0.004752111212078767
aF0.0007507267178681332
aF0.000770925055007865
aF0.0023376618282782147
aF0.0016846841537301316
aF0.005639349850753206
aF0.00516491509882222
aF0.00047843987704254687
aF0.0007460420629286091
aF0.002482463185060624
aF0.001825630701162595
aF0.005244046315056039
aF0.005634046747029942
aF0.0007466652159564546
aF0.001161114919341344
ag153
ag153
aF0.00374926366154682
aF0.001262011086287023
aF0.005953635561190218
aF0.004752111212078767
aF0.0007507267178681332
aF0.000770925055007865
aF0.0023376618282782147
aF0.0016846841537301316
aF0.005639349850753206
aF0.00516491509882222
aF0.00047843987704254687
aF0.0007460420629286091
aF0.002482463185060624
aF0.001825630701162595
aF0.005244046315056039
aF0.005634046747029942
aF0.0007466652159564546
aF0.001161114919341344
ag153
ag153
aF0.00374926366154682
aF0.001262011086287023
aF0.005953635561190218
aF0.004752111212078767
aF0.0007507267178681332
aF0.000770925055007865
aF0.0023376618282782147
aF0.0016846841537301316
aF0.005639349850753206
aF0.00516491509882222
aF0.00047843987704254687
aF0.0007460420629286091
aF0.002482463185060624
aF0.001825630701162595
aF0.005244046315056039
aF0.005634046747029942
aF0.0007466652159564546
aF0.001161114919341344
ag153
ag153
aF0.00374926366154682
aF0.001262011086287023
aF0.005953635561190218
aF0.004752111212078767
aF0.0007507267178681332
aF0.000770925055007865
aF0.0023376618282782147
aF0.0016846841537301316
aF0.005639349850753206
aF0.00516491509882222
aF0.00047843987704254687
aF0.0007460420629286091
aF0.002482463185060624
aF0.001825630701162595
aF0.005244046315056039
aF0.005634046747029942
aF0.0007466652159564546
aF0.001161114919341344
ag153
ag153
aF0.00374926366154682
aF0.001262011086287023
aF0.005953635561190218
aF0.004752111212078767
aF0.0007507267178681332
aF0.000770925055007865
aF0.0023376618282782147
aF0.0016846841537301316
aF0.005639349850753206
aF0.00516491509882222
aF0.00047843987704254687
aF0.0007460420629286091
aF0.002482463185060624
aF0.001825630701162595
aF0.005244046315056039
aF0.005634046747029942
aF0.0007466652159564546
aF0.001161114919341344
ag153
ag153
aF0.00374926366154682
aF0.001262011086287023
aF0.005953635561190218
aF0.004752111212078767
aF0.0007507267178681332
aF0.000770925055007865
aF0.0023376618282782147
aF0.0016846841537301316
aF0.005639349850753206
aF0.00516491509882222
aF0.00047843987704254687
aF0.0007460420629286091
aF0.002482463185060624
aF0.001825630701162595
aF0.005244046315056039
aF0.005634046747029942
aF0.0007466652159564546
aF0.001161114919341344
ag153
ag153
aF0.00374926366154682
aF0.001262011086287023
aF0.005953635561190218
aF0.004752111212078767
aF0.0007507267178681332
aF0.000770925055007865
aF0.0023376618282782147
aF0.0016846841537301316
aF0.005639349850753206
aF0.00516491509882222
aF0.00047843987704254687
aF0.0007460420629286091
aF0.002482463185060624
aF0.001825630701162595
aF0.005244046315056039
aF0.005634046747029942
aF0.0007466652159564546
aF0.001161114919341344
ag153
ag153
aF0.00374926366154682
aF0.001262011086287023
aF0.005953635561190218
aF0.004752111212078767
aF0.0007507267178681332
aF0.000770925055007865
aF0.0023376618282782147
aF0.0016846841537301316
aF0.005639349850753206
aF0.00516491509882222
aF0.00047843987704254687
aF0.0007460420629286091
aF0.002482463185060624
aF0.001825630701162595
aF0.005244046315056039
aF0.005634046747029942
aF0.0007466652159564546
aF0.001161114919341344
ag153
ag153
aF0.0037852902256714244
aF0.0012651439899659684
aF0.005951592941541729
aF0.004761002235867738
aF0.0007462345087009262
aF0.0007906250850915888
aF0.0023774107949567874
aF0.0016749506134950333
aF0.005587368096847825
aF0.005130949074131989
aF0.0004903760412547731
aF0.0007440056742978105
aF0.002448075798522062
aF0.0018206667219833378
aF0.005235076525692043
aF0.005605101167453966
aF0.0007424468923653035
aF0.0011585711163852794
ag153
ag153
aF0.0037317389729633575
aF0.0012607877328865435
aF0.005988088271903307
aF0.004749715316330318
aF0.0007467933669862266
aF0.0007601794015551231
aF0.0023073509804404074
aF0.001697337285035364
aF0.005694811407126261
aF0.005210397403985125
aF0.00047719916913948213
aF0.0007570440516957436
aF0.002471815942393055
aF0.0018425843975623383
aF0.005307558055226709
aF0.00569599657549269
aF0.0007708324849156656
aF0.0011761555259116564
ag153
ag153
aF0.010609873528494518
aF0.001262011086287023
aF0.005953635561190218
aF0.004752111212078767
aF0.0007507267178681332
aF0.000770925055007865
aF0.008718386212422047
aF0.0016846841537301316
aF0.005639349850753206
aF0.00516491509882222
aF0.00047843987704254687
aF163.0
aF160.0
aF0.001825630701162595
aF0.005244046315056039
aF0.005634046747029942
aF0.0007466652159564546
aF0.001161114919341344
ag153
ag153
aF0.010609873528494518
aF0.001262011086287023
aF0.005953635561190218
aF0.004752111212078767
aF0.0007507267178681332
aF0.000770925055007865
aF0.008718386212422047
aF0.0016846841537301316
aF0.005639349850753206
aF0.00516491509882222
aF0.00047843987704254687
aF163.0
aF160.0
aF0.001825630701162595
aF0.005244046315056039
aF0.005634046747029942
aF0.0007466652159564546
aF0.001161114919341344
ag153
ag153
aF0.01018075282792097
aF0.0012761779524186542
aF0.005843497986922408
aF0.004814379522248494
aF0.0007507267178681332
aF0.0007830124360452828
aF0.008761011056776624
aF0.001709942810038001
aF0.005747986203459732
aF0.005238251730528276
aF0.00044092571806686465
aF163.0
aF160.0
aF0.0018564485231848948
aF0.005331410006874648
aF0.005737448316997629
aF0.0007538999007010716
aF0.001161114919341344
ag153
ag153
aF0.010609873528494518
aF0.001241727011868126
aF0.005913289450538706
aF0.004680202615994884
aF0.0007792053427948531
aF0.0007772128539045298
aF0.008440337398496922
aF0.0016595763354878557
aF0.005482776116878085
aF0.005089811224870289
aF0.0004388615652715089
aF162.0
aF160.0
aF0.0017746929189925709
aF0.0050711191292975855
aF0.005481356056446174
aF0.0007179161202657269
aF0.0011423798687246745
ag153
ag153
aF0.01070046390105972
aF0.0012921686548256657
aF0.006184000342113194
aF0.004836161197950789
aF0.000791786401293848
aF0.0008616505332383895
aF0.010815364599693567
aF0.0017571939127343228
aF0.0056261329841618135
aF0.005322182635401518
aF0.0005318782859831117
aF164.0
aF160.0
aF0.0018842560125769126
aF0.005590822422618658
aF0.005769350073425272
aF0.0006866864987387089
aF0.0011329138496876112
ag153
ag153
aF0.007955358906485799
aF0.0012308731974891157
aF0.005383919011371141
aF0.004669846294706517
aF0.0007180568382523234
aF0.0006670767012337819
aF0.0081998865789501
aF0.0016155229723828768
aF0.005605764487427223
aF0.005010779824452527
aF0.0004466099380806554
aF165.0
aF161.0
aF0.0017545497429516388
aF0.005347572304344794
aF0.005482296725759284
aF0.0006646528327109991
aF0.0010891038336922065
ag153
ag153
aF0.008217723066820781
aF0.0012692520266927194
aF0.0057853279101767185
aF0.00475869257773952
aF0.000706888072116385
aF0.000846262544158094
aF0.009447877950151451
aF0.0016948839028749774
aF0.005722145910112886
aF0.005182048391047189
aF0.0005361390367397689
aF164.0
aF160.0
aF0.001830663881587924
aF0.005258758627860516
aF0.005643178290400286
aF0.0007117556706361938
aF0.0011337118694427772
ag153
ag153
aF0.009399875185550854
aF0.0012620033855614936
aF0.0058882387033554195
aF0.0047525094157819655
aF0.0007944065327478711
aF0.0007252231899883554
aF0.008608051146438811
aF0.001672784900264901
aF0.005652713906329154
aF0.005142582627842174
aF0.0005246465598247596
aF163.0
aF160.0
aF0.0018180638064535515
aF0.00508109049678751
aF0.005617386772746258
aF0.0006835314943600679
aF0.0010836657811523764
ag153
ag153
aF0.010857798000699859
aF0.0012633612398730322
aF0.005942101474892603
aF0.004750397876306176
aF0.0007934361270400814
aF0.000770925055007865
aF0.008720177575014532
aF0.0016841777475420372
aF0.005635598884055071
aF0.0051637040145973145
aF0.0005002525758754928
aF163.0
aF160.0
aF0.0018269189688382426
aF0.005236819004949211
aF0.005634917448011478
aF0.0008505774667355581
aF0.0011152162251164555
ag153
ag153
aF0.009987265149732139
aF0.0012627729477285125
aF0.005970179790046437
aF0.00475422569722772
aF0.0007149473847931631
aF0.0007252794040368826
aF0.008597994456067681
aF0.0016884092661939576
aF0.005701816300643259
aF0.005167537122153121
aF0.00048003659503592644
aF163.0
aF160.0
aF0.00183244841228003
aF0.005299349434153555
aF0.005645500574619433
aF0.0007051914217299782
aF0.0011295434696876328
ag153
ag153
aF0.009987265149732139
aF0.0012653411873826785
aF0.0059723847289836485
aF0.004759815710123418
aF0.0007507267178681332
aF0.0007599957190222995
aF0.008846657394315116
aF0.0016900270245798765
aF0.005659118593939638
aF0.005173747224441527
aF0.00047843987704254687
aF163.0
aF160.0
aF0.0018300206249648454
aF0.005256187901068188
aF0.005645565368524785
aF0.0007227534561025095
aF0.001161114919341344
ag153
ag153
aF0.011080189595134016
aF0.0012595042825392956
aF0.005956732545263854
aF0.004745845849067404
aF0.0007246895471126891
aF0.000770925055007865
aF0.008675511497131083
aF0.001681310833028249
aF0.005657306790453731
aF0.005157226951263638
aF0.00045820721788913943
aF162.0
aF160.0
aF0.0018202435689289587
aF0.005190403563119617
aF0.005624631102923772
aF0.0007328461488214089
aF0.0011400248995414586
ag153
ag153
aF0.010330270526367258
aF0.001265767076851814
aF0.005977812460577603
aF0.004757405192502006
aF0.0007877000130775969
aF0.0007252794040368826
aF0.008934561737987678
aF0.0016875559393483286
aF0.00566617383628909
aF0.005173090844481365
aF0.0004986550775356591
aF163.0
aF160.0
aF0.0018272822232816566
aF0.005209676749927894
aF0.0056394211297678964
aF0.0007466652159564546
aF0.0011295434696876328
ag153
ag153
aF0.010800586593006756
aF0.0012607548368193146
aF0.00597691717582105
aF0.004748989524839395
aF0.0007246895471126891
aF0.000770925055007865
aF0.008592184189183172
aF0.0016824062836136022
aF0.005647022511311661
aF0.005159809894351497
aF0.0004955545318807708
aF163.0
aF160.0
aF0.001823568719174773
aF0.00524500285700924
aF0.005630312128383608
aF0.000688572421495337
aF0.0011400248995414586
ag153
ag153
atp230
ba(lp231
g15
(g16
(dp232
g18
g19
(g20
(I0
tp233
g22
tp234
Rp235
(I1
(I1
tp236
g29
I00
(lp237
g43
atp238
bsg80
Nstp239
Rp240
ag15
(g16
(dp241
g18
g19
(g20
(I0
tp242
g22
tp243
Rp244
(I1
(I45
tp245
g29
I00
(lp246
g33
ag34
ag35
ag36
ag37
ag38
ag39
ag40
ag41
ag42
ag44
ag45
ag46
ag47
ag48
ag49
ag50
ag51
ag52
ag53
ag54
ag55
ag56
ag57
ag58
ag59
ag60
ag61
ag62
ag63
ag64
ag65
ag66
ag67
ag68
ag69
ag70
ag71
ag72
ag73
ag74
ag75
ag76
ag77
ag78
atp247
bsg80
Nstp248
Rp249
a(dp250
S'0.14.1'
p251
(dp252
S'axes'
p253
g14
sS'blocks'
p254
(lp255
(dp256
S'mgr_locs'
p257
c__builtin__
slice
p258
(I10
I11
I1
tp259
Rp260
sS'values'
p261
g101
sa(dp262
g257
g19
(g20
(I0
tp263
g22
tp264
Rp265
(I1
(I45
tp266
g91
I00
S'\x00\x00\x00\x00\x00\x00\x00\x00\x01\x00\x00\x00\x00\x00\x00\x00\x02\x00\x00\x00\x00\x00\x00\x00\x03\x00\x00\x00\x00\x00\x00\x00\x04\x00\x00\x00\x00\x00\x00\x00\x05\x00\x00\x00\x00\x00\x00\x00\x06\x00\x00\x00\x00\x00\x00\x00\x07\x00\x00\x00\x00\x00\x00\x00\x08\x00\x00\x00\x00\x00\x00\x00\t\x00\x00\x00\x00\x00\x00\x00\x0b\x00\x00\x00\x00\x00\x00\x00\x0c\x00\x00\x00\x00\x00\x00\x00\r\x00\x00\x00\x00\x00\x00\x00\x0e\x00\x00\x00\x00\x00\x00\x00\x0f\x00\x00\x00\x00\x00\x00\x00\x10\x00\x00\x00\x00\x00\x00\x00\x11\x00\x00\x00\x00\x00\x00\x00\x12\x00\x00\x00\x00\x00\x00\x00\x13\x00\x00\x00\x00\x00\x00\x00\x14\x00\x00\x00\x00\x00\x00\x00\x15\x00\x00\x00\x00\x00\x00\x00\x16\x00\x00\x00\x00\x00\x00\x00\x17\x00\x00\x00\x00\x00\x00\x00\x18\x00\x00\x00\x00\x00\x00\x00\x19\x00\x00\x00\x00\x00\x00\x00\x1a\x00\x00\x00\x00\x00\x00\x00\x1b\x00\x00\x00\x00\x00\x00\x00\x1c\x00\x00\x00\x00\x00\x00\x00\x1d\x00\x00\x00\x00\x00\x00\x00\x1e\x00\x00\x00\x00\x00\x00\x00\x1f\x00\x00\x00\x00\x00\x00\x00 \x00\x00\x00\x00\x00\x00\x00!\x00\x00\x00\x00\x00\x00\x00"\x00\x00\x00\x00\x00\x00\x00#\x00\x00\x00\x00\x00\x00\x00$\x00\x00\x00\x00\x00\x00\x00%\x00\x00\x00\x00\x00\x00\x00&\x00\x00\x00\x00\x00\x00\x00\'\x00\x00\x00\x00\x00\x00\x00(\x00\x00\x00\x00\x00\x00\x00)\x00\x00\x00\x00\x00\x00\x00*\x00\x00\x00\x00\x00\x00\x00+\x00\x00\x00\x00\x00\x00\x00,\x00\x00\x00\x00\x00\x00\x00-\x00\x00\x00\x00\x00\x00\x00'
p267
tp268
bsg261
g112
sasstp269
bsb.