ccopy_reg
_reconstructor
p0
(cpandas.core.frame
DataFrame
p1
c__builtin__
object
p2
Ntp3
Rp4
(dp5
S'_metadata'
p6
(lp7
sS'_typ'
p8
S'dataframe'
p9
sS'_data'
p10
g0
(cpandas.core.internals
BlockManager
p11
g2
Ntp12
Rp13
((lp14
cpandas.core.indexes.base
_new_Index
p15
(cpandas.core.indexes.base
Index
p16
(dp17
S'data'
p18
cnumpy.core.multiarray
_reconstruct
p19
(cnumpy
ndarray
p20
(I0
tp21
S'b'
p22
tp23
Rp24
(I1
(I48
tp25
cnumpy
dtype
p26
(S'O8'
p27
I0
I1
tp28
Rp29
(I3
S'|'
p30
NNNI-1
I-1
I63
tp31
bI00
(lp32
S'year'
p33
aS'type'
p34
aS'procOriginal'
p35
aS'proc'
p36
aS'proc_s0'
p37
aS'cat'
p38
aS'inputWSFile'
p39
aS'nominalDataName'
p40
aS'modelWSFile'
p41
aS'model'
p42
aS'rate'
p43
aS'nominal_yield'
p44
aS'sumw2'
p45
aS'nominal_yield_COWCorr'
p46
aS'LooseMvaSF_up_yield'
p47
aS'LooseMvaSF_down_yield'
p48
aS'PreselSF_up_yield'
p49
aS'PreselSF_down_yield'
p50
aS'electronVetoSF_up_yield'
p51
aS'electronVetoSF_down_yield'
p52
aS'TriggerWeight_up_yield'
p53
aS'TriggerWeight_down_yield'
p54
aS'MuonIDWeight_up_yield'
p55
aS'MuonIDWeight_down_yield'
p56
aS'MuonIsoWeight_up_yield'
p57
aS'MuonIsoWeight_down_yield'
p58
aS'ElectronIDWeight_up_yield'
p59
aS'ElectronIDWeight_down_yield'
p60
aS'ElectronRecoWeight_up_yield'
p61
aS'ElectronRecoWeight_down_yield'
p62
aS'JetBTagReshapeWeight_up_yield'
p63
aS'JetBTagReshapeWeight_down_yield'
p64
aS'SigmaEOverEShift_up_yield'
p65
aS'SigmaEOverEShift_down_yield'
p66
aS'MvaShift_up_yield'
p67
aS'MvaShift_down_yield'
p68
aS'PUJIDShift_up_yield'
p69
aS'PUJIDShift_down_yield'
p70
aS'JEC_up_yield'
p71
aS'JEC_down_yield'
p72
aS'JER_up_yield'
p73
aS'JER_down_yield'
p74
aS'metJecUncertainty_up_yield'
p75
aS'metJecUncertainty_down_yield'
p76
aS'metPhoUncertainty_up_yield'
p77
aS'metPhoUncertainty_down_yield'
p78
aS'metUncUncertainty_up_yield'
p79
aS'metUncUncertainty_down_yield'
p80
atp81
bsS'name'
p82
Nstp83
Rp84
ag15
(cpandas.core.indexes.numeric
Int64Index
p85
(dp86
g18
g19
(g20
(I0
tp87
g22
tp88
Rp89
(I1
(I17
tp90
g26
(S'i8'
p91
I0
I1
tp92
Rp93
(I3
S'<'
p94
NNNI-1
I-1
I0
tp95
bI00
S'\x00\x00\x00\x00\x00\x00\x00\x00\x01\x00\x00\x00\x00\x00\x00\x00\x02\x00\x00\x00\x00\x00\x00\x00\x03\x00\x00\x00\x00\x00\x00\x00\x04\x00\x00\x00\x00\x00\x00\x00\x05\x00\x00\x00\x00\x00\x00\x00\x06\x00\x00\x00\x00\x00\x00\x00\x07\x00\x00\x00\x00\x00\x00\x00\x08\x00\x00\x00\x00\x00\x00\x00\t\x00\x00\x00\x00\x00\x00\x00\n\x00\x00\x00\x00\x00\x00\x00\x0b\x00\x00\x00\x00\x00\x00\x00\x0c\x00\x00\x00\x00\x00\x00\x00\r\x00\x00\x00\x00\x00\x00\x00\x0e\x00\x00\x00\x00\x00\x00\x00\x0f\x00\x00\x00\x00\x00\x00\x00\x10\x00\x00\x00\x00\x00\x00\x00'
p96
tp97
bsg82
Nstp98
Rp99
a(lp100
g19
(g20
(I0
tp101
g22
tp102
Rp103
(I1
(I1
I17
tp104
g26
(S'f8'
p105
I0
I1
tp106
Rp107
(I3
S'<'
p108
NNNI-1
I-1
I0
tp109
bI00
S'\x00\x00\x00\x00@\xbd\xe1@\x00\x00\x00\x00@\xbd\xe1@\x00\x00\x00\x00@\xbd\xe1@\x00\x00\x00\x00@\xbd\xe1@\x00\x00\x00\x00@\xbd\xe1@\x00\x00\x00\x00\x00A\xe4@\x00\x00\x00\x00\x00A\xe4@\x00\x00\x00\x00\x00A\xe4@\x00\x00\x00\x00\x00A\xe4@\x00\x00\x00\x00\x00A\xe4@\x00\x00\x00\x00\xc06\xed@\x00\x00\x00\x00\xc06\xed@\x00\x00\x00\x00\xc06\xed@\x00\x00\x00\x00\xc06\xed@\x00\x00\x00\x00\xc06\xed@\x00\x00\x00\x00\x00\x00\xf0?\x00\x00\x00\x00\x00\x00\xf0\xbf'
p110
tp111
bag19
(g20
(I0
tp112
g22
tp113
Rp114
(I1
(I47
I17
tp115
g29
I00
(lp116
S'2016'
p117
ag117
ag117
ag117
ag117
aS'2017'
p118
ag118
ag118
ag118
ag118
aS'2018'
p119
ag119
ag119
ag119
ag119
aS'merged'
p120
ag120
aS'sig'
p121
ag121
ag121
ag121
ag121
ag121
ag121
ag121
ag121
ag121
ag121
ag121
ag121
ag121
ag121
aS'bkg'
p122
ag18
aS'GG2H'
p123
aS'THQ'
p124
aS'TTH'
p125
aS'VBF'
p126
aS'VH'
p127
ag123
ag124
ag125
ag126
ag127
ag123
ag124
ag125
ag126
ag127
aS'bkg_mass'
p128
aS'data_obs'
p129
aS'ggH_2016_hgg'
p130
aS'tHq_2016_hgg'
p131
aS'ttH_2016_hgg'
p132
aS'qqH_2016_hgg'
p133
aS'VH_2016_hgg'
p134
aS'ggH_2017_hgg'
p135
aS'tHq_2017_hgg'
p136
aS'ttH_2017_hgg'
p137
aS'qqH_2017_hgg'
p138
aS'VH_2017_hgg'
p139
aS'ggH_2018_hgg'
p140
aS'tHq_2018_hgg'
p141
aS'ttH_2018_hgg'
p142
aS'qqH_2018_hgg'
p143
aS'VH_2018_hgg'
p144
ag128
ag129
aS'ggh'
p145
aS'thq'
p146
aS'tth'
p147
aS'vbf'
p148
aS'vh'
p149
ag145
ag146
ag147
ag148
ag149
ag145
ag146
ag147
ag148
ag149
aS'-'
p150
ag150
aS'THQLeptonicTag'
p151
ag151
ag151
ag151
ag151
ag151
ag151
ag151
ag151
ag151
ag151
ag151
ag151
ag151
ag151
ag151
ag151
aS'/eos/user/p/prsaha/Tprime_analysis/FinalFit_inputs/UL/v2_CR2/2016/output_GluGluHToGG_M125_TuneCP5Down_13TeV-amcatnloFXFX-pythia8_GG2H.root'
p152
aS'/eos/user/p/prsaha/Tprime_analysis/FinalFit_inputs/UL/v2_CR2/2016/output_THQ_ctcvcp_HToGG_M125_13TeV-madgraph-pythia8_THQ.root'
p153
aS'/eos/user/p/prsaha/Tprime_analysis/FinalFit_inputs/UL/v2_CR2/2016/output_ttHJetToGG_M125_13TeV_amcatnloFXFX_madspin_pythia8_TTH.root'
p154
aS'/eos/user/p/prsaha/Tprime_analysis/FinalFit_inputs/UL/v2_CR2/2016/output_VBFHToGG_M125_13TeV_amcatnlo_pythia8_VBF.root'
p155
aS'/eos/user/p/prsaha/Tprime_analysis/FinalFit_inputs/UL/v2_CR2/2016/output_VHToGG_M125_13TeV_amcatnloFXFX_madspin_pythia8_VH.root'
p156
aS'/eos/user/p/prsaha/Tprime_analysis/FinalFit_inputs/UL/v2_CR2/2017/output_GluGluHToGG_M125_TuneCP5Down_13TeV-amcatnloFXFX-pythia8_GG2H.root'
p157
aS'/eos/user/p/prsaha/Tprime_analysis/FinalFit_inputs/UL/v2_CR2/2017/output_THQ_ctcvcp_HToGG_M125_13TeV-madgraph-pythia8_THQ.root'
p158
aS'/eos/user/p/prsaha/Tprime_analysis/FinalFit_inputs/UL/v2_CR2/2017/output_ttHJetToGG_M125_13TeV_amcatnloFXFX_madspin_pythia8_TTH.root'
p159
aS'/eos/user/p/prsaha/Tprime_analysis/FinalFit_inputs/UL/v2_CR2/2017/output_VBFHToGG_M125_13TeV_amcatnlo_pythia8_VBF.root'
p160
aS'/eos/user/p/prsaha/Tprime_analysis/FinalFit_inputs/UL/v2_CR2/2017/output_VHToGG_M125_13TeV_amcatnloFXFX_madspin_pythia8_VH.root'
p161
aS'/eos/user/p/prsaha/Tprime_analysis/FinalFit_inputs/UL/v2_CR2/2018/output_GluGluHToGG_M125_TuneCP5Down_13TeV-amcatnloFXFX-pythia8_GG2H.root'
p162
aS'/eos/user/p/prsaha/Tprime_analysis/FinalFit_inputs/UL/v2_CR2/2018/output_THQ_ctcvcp_HToGG_M125_13TeV-madgraph-pythia8_THQ.root'
p163
aS'/eos/user/p/prsaha/Tprime_analysis/FinalFit_inputs/UL/v2_CR2/2018/output_ttHJetToGG_M125_13TeV_amcatnloFXFX_madspin_pythia8_TTH.root'
p164
aS'/eos/user/p/prsaha/Tprime_analysis/FinalFit_inputs/UL/v2_CR2/2018/output_VBFHToGG_M125_13TeV_amcatnlo_pythia8_VBF.root'
p165
aS'/eos/user/p/prsaha/Tprime_analysis/FinalFit_inputs/UL/v2_CR2/2018/output_VHToGG_M125_13TeV_amcatnloFXFX_madspin_pythia8_VH.root'
p166
ag150
ag150
aS'ggh_125_13TeV_THQLeptonicTag'
p167
aS'thq_125_13TeV_THQLeptonicTag'
p168
aS'tth_125_13TeV_THQLeptonicTag'
p169
aS'vbf_125_13TeV_THQLeptonicTag'
p170
aS'vh_125_13TeV_THQLeptonicTag'
p171
aS'ggh_125_13TeV_THQLeptonicTag'
p172
aS'thq_125_13TeV_THQLeptonicTag'
p173
aS'tth_125_13TeV_THQLeptonicTag'
p174
aS'vbf_125_13TeV_THQLeptonicTag'
p175
aS'vh_125_13TeV_THQLeptonicTag'
p176
aS'ggh_125_13TeV_THQLeptonicTag'
p177
aS'thq_125_13TeV_THQLeptonicTag'
p178
aS'tth_125_13TeV_THQLeptonicTag'
p179
aS'vbf_125_13TeV_THQLeptonicTag'
p180
aS'vh_125_13TeV_THQLeptonicTag'
p181
ag150
ag150
aS'./Models_HiggsCR/signal/CMS-HGG_sigfit_packaged_HiggsCR_THQLeptonicTag.root'
p182
aS'./Models_HiggsCR/signal/CMS-HGG_sigfit_packaged_HiggsCR_THQLeptonicTag.root'
p183
aS'./Models_HiggsCR/signal/CMS-HGG_sigfit_packaged_HiggsCR_THQLeptonicTag.root'
p184
aS'./Models_HiggsCR/signal/CMS-HGG_sigfit_packaged_HiggsCR_THQLeptonicTag.root'
p185
aS'./Models_HiggsCR/signal/CMS-HGG_sigfit_packaged_HiggsCR_THQLeptonicTag.root'
p186
aS'./Models_HiggsCR/signal/CMS-HGG_sigfit_packaged_HiggsCR_THQLeptonicTag.root'
p187
aS'./Models_HiggsCR/signal/CMS-HGG_sigfit_packaged_HiggsCR_THQLeptonicTag.root'
p188
aS'./Models_HiggsCR/signal/CMS-HGG_sigfit_packaged_HiggsCR_THQLeptonicTag.root'
p189
aS'./Models_HiggsCR/signal/CMS-HGG_sigfit_packaged_HiggsCR_THQLeptonicTag.root'
p190
aS'./Models_HiggsCR/signal/CMS-HGG_sigfit_packaged_HiggsCR_THQLeptonicTag.root'
p191
aS'./Models_HiggsCR/signal/CMS-HGG_sigfit_packaged_HiggsCR_THQLeptonicTag.root'
p192
aS'./Models_HiggsCR/signal/CMS-HGG_sigfit_packaged_HiggsCR_THQLeptonicTag.root'
p193
aS'./Models_HiggsCR/signal/CMS-HGG_sigfit_packaged_HiggsCR_THQLeptonicTag.root'
p194
aS'./Models_HiggsCR/signal/CMS-HGG_sigfit_packaged_HiggsCR_THQLeptonicTag.root'
p195
aS'./Models_HiggsCR/signal/CMS-HGG_sigfit_packaged_HiggsCR_THQLeptonicTag.root'
p196
aS'./Models_HiggsCR/background/CMS-HGG_multipdf_THQLeptonicTag.root'
p197
ag197
aS'wsig_13TeV:hggpdfsmrel_GG2H_2016_THQLeptonicTag_13TeV'
p198
aS'wsig_13TeV:hggpdfsmrel_THQ_2016_THQLeptonicTag_13TeV'
p199
aS'wsig_13TeV:hggpdfsmrel_TTH_2016_THQLeptonicTag_13TeV'
p200
aS'wsig_13TeV:hggpdfsmrel_VBF_2016_THQLeptonicTag_13TeV'
p201
aS'wsig_13TeV:hggpdfsmrel_VH_2016_THQLeptonicTag_13TeV'
p202
aS'wsig_13TeV:hggpdfsmrel_GG2H_2017_THQLeptonicTag_13TeV'
p203
aS'wsig_13TeV:hggpdfsmrel_THQ_2017_THQLeptonicTag_13TeV'
p204
aS'wsig_13TeV:hggpdfsmrel_TTH_2017_THQLeptonicTag_13TeV'
p205
aS'wsig_13TeV:hggpdfsmrel_VBF_2017_THQLeptonicTag_13TeV'
p206
aS'wsig_13TeV:hggpdfsmrel_VH_2017_THQLeptonicTag_13TeV'
p207
aS'wsig_13TeV:hggpdfsmrel_GG2H_2018_THQLeptonicTag_13TeV'
p208
aS'wsig_13TeV:hggpdfsmrel_THQ_2018_THQLeptonicTag_13TeV'
p209
aS'wsig_13TeV:hggpdfsmrel_TTH_2018_THQLeptonicTag_13TeV'
p210
aS'wsig_13TeV:hggpdfsmrel_VBF_2018_THQLeptonicTag_13TeV'
p211
aS'wsig_13TeV:hggpdfsmrel_VH_2018_THQLeptonicTag_13TeV'
p212
aS'multipdf:CMS_hgg_THQLeptonicTag_13TeV_bkgshape'
p213
aS'multipdf:roohist_data_mass_THQLeptonicTag'
p214
aF0.0034784850613505114
aF0.003802211189773464
aF0.03571548062276264
aF0.00043326242178309826
aF0.004780921579921937
aF0.0026908493782684673
aF0.004071077276854851
aF0.041122169658819985
aF0.0009318097436334938
aF0.007764809598484135
aF0.0026595738090691157
aF0.004376333898040485
aF0.045991600541583466
aF0.0005257729508230113
aF0.00873955292354367
ag150
ag150
aF1.4068458304662752e-06
aF3.482352579508649e-10
aF2.7307476093663847e-06
aF4.954281035334339e-08
aF4.069975467882845e-07
aF6.353459703637839e-07
aF3.5044003462268206e-10
aF1.0708317237308164e-06
aF3.773266523843627e-08
aF3.689342131977211e-07
aF1.065913284819994e-06
aF3.9903241767126943e-10
aF1.3917338494116275e-06
aF4.8051088242666786e-08
aF5.210032186583174e-07
ag150
ag150
aF0.003727382970445032
aF0.004080756669368151
aF0.03775040901468336
aF0.0004849784891629134
aF0.005035044945820865
aF0.002790282696358447
aF0.004354820263923392
aF0.04210715603434501
aF0.001001237205148094
aF0.007936229899635022
aF0.0026543060414240768
aF0.004477194969863814
aF0.04438294773632238
aF0.0004890333509575515
aF0.0076356715834011235
ag150
ag150
aF0.003478632325688978
aF0.0038023127652331967
aF0.03571637327160544
aF0.00043326316088107813
aF0.0047810838598982735
aF0.0027083782918722074
aF0.004098029109214786
aF0.04140023988574683
aF0.000937633404623012
aF0.007815766376864413
aF0.0026596025316321195
aF0.004376436609116583
aF0.045992530752156965
aF0.0005258129892255352
aF0.00873973522108542
ag150
ag150
aF0.003478337596563852
aF0.003802109517263591
aF0.03571458713332395
aF0.0004332616696055861
aF0.0047807591141763445
aF0.0026733795700916853
aF0.004044215115723989
aF0.040845045161214746
aF0.0009260051530173809
aF0.007714021241888231
aF0.0026595450312575353
aF0.004376231083526876
aF0.04599066941497848
aF0.000525732859926362
aF0.008739370460840461
ag150
ag150
aF0.0034903604307859027
aF0.0038137057848050904
aF0.03582316249957738
aF0.0004348782824751388
aF0.004796178797784949
aF0.0027379910031964556
aF0.004139580184208464
aF0.041772192392794776
aF0.000949055095294112
aF0.007889539398211567
aF0.0026805417945316183
aF0.004411228510724097
aF0.04634707838873855
aF0.0005316831220967648
aF0.00881008775250782
ag150
ag150
aF0.0034666471947222225
aF0.0037907359368777598
aF0.03560798260895939
aF0.00043165091711543557
aF0.004765703427770438
aF0.002644005382692485
aF0.004003141927327732
aF0.04047710695944147
aF0.0009147781742855219
aF0.007641058217744617
aF0.0026386862253219316
aF0.004341581513847002
aF0.04563754053130848
aF0.0005198927500530558
aF0.008669296249657094
ag150
ag150
aF0.0034869036082950055
aF0.0038105316837947854
aF0.03579150459335421
aF0.0004340412518844772
aF0.004791838048868502
aF0.0026998078535676842
aF0.004083496100394037
aF0.041241864077215834
aF0.0009348579070516805
aF0.00779052543141478
aF0.0026640721180536397
aF0.0043844131460761045
aF0.04607242408959145
aF0.0005276778010139283
aF0.00875531768888701
ag150
ag150
aF0.003470077143230906
aF0.0037938998352141855
aF0.03563953708345504
aF0.00043248447033211246
aF0.004770018648916292
aF0.0026819056292214215
aF0.004058678033667678
aF0.04100265907464971
aF0.0009287676156405119
aF0.007739137232403825
aF0.002655080175212128
aF0.0043682622937941526
aF0.04591085125676527
aF0.0005238708799004313
aF0.008723799417482001
ag150
ag150
aF0.003491217357979655
aF0.0038108537399615585
aF0.03579293547379901
aF0.000434132407067315
aF0.004791459804658515
aF0.002695416634445472
aF0.004082767580869614
aF0.04123270999737364
aF0.0009348265387578078
aF0.007788951697403897
aF0.0026672029944360817
aF0.004386729838066035
aF0.04609930421056883
aF0.0005275486861671725
aF0.008760518576233082
ag150
ag150
aF0.0034657715283556052
aF0.003793578544014405
aF0.035638110378769246
aF0.00043239328519917167
aF0.004770395044434121
aF0.002686286418493744
aF0.004059403253669435
aF0.041011768172976665
aF0.0009287964712308787
aF0.007740703325016981
aF0.0026519548599890975
aF0.004365950109121835
aF0.045884020055717276
aF0.0005239997593438273
aF0.008718611538734529
ag150
ag150
aF0.003503675356786618
aF0.003821826741963042
aF0.035918147700653345
aF0.0004349254480605496
aF0.004794207575499211
aF0.0026928343604314545
aF0.0040739687036434186
aF0.041152061454519495
aF0.000931710600403046
aF0.00776580491002182
aF0.002665116955083151
aF0.0043859166184591555
aF0.046099904086501685
aF0.000526786287706471
aF0.00875566066509452
ag150
ag150
aF0.0034532946396254273
aF0.0037825970000602105
aF0.03551298137033039
aF0.00043159936679864263
aF0.004767669419035355
aF0.002688857861123873
aF0.0040681859925453204
aF0.04109228120135955
aF0.0009319089867346604
aF0.007763814387680135
aF0.0026540305857446437
aF0.0043667516159146495
aF0.04588334932056328
aF0.0005247596014793634
aF0.008723445637351912
ag150
ag150
aF0.0034913557052140467
aF0.0038101732789683463
aF0.03579606519825153
aF0.00043444207582507636
aF0.004785370242058064
aF0.0027103614811894257
aF0.004080525094565251
aF0.04121863285345928
aF0.0009355614895641511
aF0.007780183412674385
aF0.0026675311890175103
aF0.004379521779559953
aF0.04602579623062221
aF0.0005261384372132219
aF0.008746019695965526
ag150
ag150
aF0.003465614295589563
aF0.0037942494737016894
aF0.03563493326811701
aF0.00043208275707512094
aF0.004776474892335385
aF0.0026713083182396506
aF0.00406163057282257
aF0.041025733540161334
aF0.0009280631856666902
aF0.007749437615487224
aF0.002651616492768589
aF0.004373146120971622
aF0.04595740897377589
aF0.0005254074597972349
aF0.008733086746641161
ag150
ag150
aF0.003517548654635456
aF0.003823702431941509
aF0.03594694676337707
aF0.0004372974640988144
aF0.004799462235461366
aF0.0027134345645482643
aF0.004089724860153126
aF0.041384869339708114
aF0.0009754296893153275
aF0.007794783676174292
aF0.002485707176490511
aF0.004402614279177756
aF0.0462653408873963
aF0.0005331959476177958
aF0.00886189692791735
ag150
ag150
aF0.0034394215978295795
aF0.0037807206523516167
aF0.035484095450853285
aF0.0004292273516566234
aF0.00476238397596106
aF0.0026682642666718136
aF0.004052430926208706
aF0.04086046463227823
aF0.0008881898255386045
aF0.007734844159916767
aF0.002833440450753373
aF0.004350061363079397
aF0.04571774834474806
aF0.0005183499426757134
aF0.008617329431106687
ag150
ag150
aF0.0035126145673270875
aF0.0038117365229560175
aF0.03583198062533813
aF0.00043795333110023646
aF0.00479800455713199
aF0.0027342823309110284
aF0.00408934323961794
aF0.04133839221421134
aF0.0009586499881721906
aF0.007807162832808057
aF0.0026643282458087094
aF0.0043840218882653555
aF0.04607948831647213
aF0.0005308962562283378
aF0.00875569308015292
ag150
ag150
aF0.003444355783570464
aF0.0037926865230523588
aF0.03559904738969081
aF0.0004285715018387894
aF0.004763839126540489
aF0.0026474164012451396
aF0.00405281376128733
aF0.040906399071147743
aF0.0009049695171591121
aF0.007722461592080397
aF0.0026548194520162904
aF0.004368646662101111
aF0.04590373181645054
aF0.0005206495992862181
aF0.00872340672658488
ag150
ag150
aF0.0034916882521998597
aF0.0038193774625539714
aF0.035844459591659265
aF0.0004294042373642551
aF0.004744359113013966
aF0.0026720042488389026
aF0.00407720012949577
aF0.041026909339944795
aF0.000935279180005313
aF0.007741203753500429
aF0.0026647182677772712
aF0.004399609527238624
aF0.0462003508936315
aF0.0005124533586756805
aF0.008678284854616362
ag150
ag150
aF0.0034924163430194994
aF0.0037897086574285596
aF0.03567221258919547
aF0.00043780801422404683
aF0.004798099594229106
aF0.0027023287343108924
aF0.004073527854123335
aF0.041331107789027995
aF0.0009382990707020758
aF0.007843873051300989
aF0.002637571160321373
aF0.004380994432770146
aF0.0461520718768373
aF0.0005258139212731627
aF0.008900324492927169
ag150
ag150
aF0.0034412530112604145
aF0.003815262950781235
aF0.03579955805286161
aF0.00043326242178309826
aF0.004856908628468659
aF0.0028573434174177237
aF0.004074174823173848
aF0.04104602752772735
aF0.0009318097436334938
aF0.007635828305865289
aF0.0027902035653823987
aF0.00438439600667806
aF0.04522070760958741
aF0.0005420474399215891
aF0.009015532873490884
ag150
ag150
aF0.0034412530112604145
aF0.003810026128463692
aF0.03608721336671117
aF0.00043326242178309826
aF0.004445767235537801
aF0.0028573434174177237
aF0.004074025656603197
aF0.041102792550873346
aF0.0009318097436334938
aF0.007630890641848964
aF0.0027902035653823987
aF0.004386508387870691
aF0.0455266138665138
aF0.000511494159582071
aF0.008856360725076229
ag150
ag150
aF0.0034412530112604145
aF0.0038563413021336715
aF0.03690595344851477
aF0.00046545644836371025
aF0.004936049195528369
aF0.0028573434174177237
aF0.004137983574455717
aF0.042603943380299825
aF0.0009047563671629177
aF0.007988744171598228
aF0.0032604199805064127
aF0.004494950718484603
aF0.04698551024603148
aF0.0005469384750540485
aF0.009051365726008953
ag150
ag150
aF0.0034412530112604145
aF0.0037472674632256266
aF0.03460375374119362
aF0.00043326242178309826
aF0.004486045713726128
aF0.0028573434174177237
aF0.004003773951314571
aF0.03996414177049701
aF0.0008800143832559115
aF0.007260845502059965
aF0.002566120143455919
aF0.004241918796157762
aF0.04257537094736108
aF0.0005206662262935424
aF0.008435607019237068
ag150
ag150
aF0.0034412530112604145
aF0.0038066129726737584
aF0.03635265593706727
aF0.00043326242178309826
aF0.004657105655347493
aF0.0028573434174177237
aF0.004076674947441461
aF0.04123953114526557
aF0.0009211461219820194
aF0.007611596649439889
aF0.0027902035653823987
aF0.0043847415562332515
aF0.045478690451545845
aF0.0005468766685226001
aF0.008694131002812355
ag150
ag150
aF0.0034412530112604145
aF0.003810919850155175
aF0.03617302026631819
aF0.00043326242178309826
aF0.004747366592582125
aF0.0028573434174177237
aF0.00407805846295517
aF0.04115031612150233
aF0.0009318097436334938
aF0.007566871226117655
aF0.0027902035653823987
aF0.004385899609459898
aF0.044923787015704875
aF0.0005420474399215891
aF0.008828646627080161
ag150
ag150
aF0.003484043805656256
aF0.003916211772245597
aF0.03576745057740904
aF0.00042096143500103267
aF0.004641664682191404
aF0.0028452710321289487
aF0.004266826647203459
aF0.04239956845481174
aF0.0009467927438890911
aF0.009993154090807366
aF0.003963285817008
aF0.004550838440099625
aF0.04604391485281667
aF0.0004826719168704585
aF0.010181912840380392
ag150
ag150
aF0.0027130728885822464
aF0.0036974815373057163
aF0.034315269622768874
aF0.00046610992525231154
aF0.004459676929293721
aF0.002532700957090128
aF0.0038814767306725173
aF0.03985679263610109
aF0.0007821847848390462
aF0.005855503100065107
aF0.0024457610343233682
aF0.004224820139324237
aF0.04432494685488564
aF0.0004771242392962449
aF0.007683421458750672
ag150
ag150
aF0.003348865073348861
aF0.003835772757551259
aF0.03664990836665272
aF0.0005210336281429306
aF0.004909608503840701
aF0.0029642586814588867
aF0.004109483508372591
aF0.041636789706217314
aF0.0009680963403297937
aF0.00848665039120533
aF0.0034480827816878445
aF0.00442431831947232
aF0.04564078229941515
aF0.0005235580365479109
aF0.00997118055329338
ag150
ag150
aF0.0036061863393115345
aF0.0037820473888846816
aF0.03526515830631194
aF0.0003967935848088189
aF0.004376357916369145
aF0.0028634557893383317
aF0.004034626947969855
aF0.04080520520824393
aF0.0008594277842348674
aF0.006645163140092336
aF0.003023291072167922
aF0.004354451282033267
aF0.045347636506903655
aF0.0005044022773290635
aF0.008080925106696668
ag150
ag150
aF0.0034412530112604145
aF0.003793389257603759
aF0.03543317500573018
aF0.00043326242178309826
aF0.004644579735241905
aF0.0028573434174177237
aF0.004050323449334314
aF0.0405973358472238
aF0.0009066281691048061
aF0.007565576908746152
aF0.0027902035653823987
aF0.004324554546030868
aF0.04478373751499021
aF0.0005433940759758116
aF0.008659356753014436
ag150
ag150
aF0.0034412530112604145
aF0.0038253218821378554
aF0.03604326497493915
aF0.00043326242178309826
aF0.004668687610902111
aF0.0028573434174177237
aF0.00409987433562975
aF0.04096086056210879
aF0.0009445968189538689
aF0.007727756622443849
aF0.002888199254812207
aF0.004426187034475504
aF0.04494644736405462
aF0.0005257729508230113
aF0.00895855096860032
ag150
ag150
aF0.0034412530112604145
aF0.0038038939853869275
aF0.03528271800450433
aF0.00043326242178309826
aF0.004711973711565065
aF0.0028573434174177237
aF0.004061811218086575
aF0.04096214602282089
aF0.0009445968189538689
aF0.007713474711636081
aF0.0027902035653823987
aF0.004374776519807
aF0.045160468267113174
aF0.0005420474399215891
aF0.008791331917564094
ag150
ag150
aF0.0034412530112604145
aF0.003818667536413245
aF0.03564313471614167
aF0.00043326242178309826
aF0.00456598384214324
aF0.0028573434174177237
aF0.0040814636544119764
aF0.04073176608085305
aF0.0009211461219820194
aF0.007611490575982316
aF0.0027902035653823987
aF0.004391966596251962
aF0.045412642328301445
aF0.0005420474399215891
aF0.008781713040661998
ag150
ag150
aF0.0034412530112604145
aF0.003790613784360332
aF0.036242054325280826
aF0.00043326242178309826
aF0.004702040669108953
aF0.0028573434174177237
aF0.004053457494908486
aF0.04089859795044504
aF0.0009300788660766557
aF0.007777087604154076
aF0.0027902035653823987
aF0.004376342212015771
aF0.0452911766278703
aF0.0005621275413432159
aF0.008554166547583009
ag150
ag150
aF0.0034412530112604145
aF0.0038134903182524063
aF0.036294042184572994
aF0.00046027944990711944
aF0.004637868931482103
aF0.002757902053417638
aF0.0040824180986689385
aF0.041817776695779685
aF0.0009467663803661708
aF0.007622094519319944
aF0.002888199254812207
aF0.004384952138043019
aF0.04594502404779632
aF0.0005431760100691463
aF0.008753561332014215
ag150
ag150
atp215
ba(lp216
g15
(g16
(dp217
g18
g19
(g20
(I0
tp218
g22
tp219
Rp220
(I1
(I1
tp221
g29
I00
(lp222
g43
atp223
bsg82
Nstp224
Rp225
ag15
(g16
(dp226
g18
g19
(g20
(I0
tp227
g22
tp228
Rp229
(I1
(I47
tp230
g29
I00
(lp231
g33
ag34
ag35
ag36
ag37
ag38
ag39
ag40
ag41
ag42
ag44
ag45
ag46
ag47
ag48
ag49
ag50
ag51
ag52
ag53
ag54
ag55
ag56
ag57
ag58
ag59
ag60
ag61
ag62
ag63
ag64
ag65
ag66
ag67
ag68
ag69
ag70
ag71
ag72
ag73
ag74
ag75
ag76
ag77
ag78
ag79
ag80
atp232
bsg82
Nstp233
Rp234
a(dp235
S'0.14.1'
p236
(dp237
S'axes'
p238
g14
sS'blocks'
p239
(lp240
(dp241
S'mgr_locs'
p242
c__builtin__
slice
p243
(I10
I11
I1
tp244
Rp245
sS'values'
p246
g103
sa(dp247
g242
g19
(g20
(I0
tp248
g22
tp249
Rp250
(I1
(I47
tp251
g93
I00
S'\x00\x00\x00\x00\x00\x00\x00\x00\x01\x00\x00\x00\x00\x00\x00\x00\x02\x00\x00\x00\x00\x00\x00\x00\x03\x00\x00\x00\x00\x00\x00\x00\x04\x00\x00\x00\x00\x00\x00\x00\x05\x00\x00\x00\x00\x00\x00\x00\x06\x00\x00\x00\x00\x00\x00\x00\x07\x00\x00\x00\x00\x00\x00\x00\x08\x00\x00\x00\x00\x00\x00\x00\t\x00\x00\x00\x00\x00\x00\x00\x0b\x00\x00\x00\x00\x00\x00\x00\x0c\x00\x00\x00\x00\x00\x00\x00\r\x00\x00\x00\x00\x00\x00\x00\x0e\x00\x00\x00\x00\x00\x00\x00\x0f\x00\x00\x00\x00\x00\x00\x00\x10\x00\x00\x00\x00\x00\x00\x00\x11\x00\x00\x00\x00\x00\x00\x00\x12\x00\x00\x00\x00\x00\x00\x00\x13\x00\x00\x00\x00\x00\x00\x00\x14\x00\x00\x00\x00\x00\x00\x00\x15\x00\x00\x00\x00\x00\x00\x00\x16\x00\x00\x00\x00\x00\x00\x00\x17\x00\x00\x00\x00\x00\x00\x00\x18\x00\x00\x00\x00\x00\x00\x00\x19\x00\x00\x00\x00\x00\x00\x00\x1a\x00\x00\x00\x00\x00\x00\x00\x1b\x00\x00\x00\x00\x00\x00\x00\x1c\x00\x00\x00\x00\x00\x00\x00\x1d\x00\x00\x00\x00\x00\x00\x00\x1e\x00\x00\x00\x00\x00\x00\x00\x1f\x00\x00\x00\x00\x00\x00\x00 \x00\x00\x00\x00\x00\x00\x00!\x00\x00\x00\x00\x00\x00\x00"\x00\x00\x00\x00\x00\x00\x00#\x00\x00\x00\x00\x00\x00\x00$\x00\x00\x00\x00\x00\x00\x00%\x00\x00\x00\x00\x00\x00\x00&\x00\x00\x00\x00\x00\x00\x00\'\x00\x00\x00\x00\x00\x00\x00(\x00\x00\x00\x00\x00\x00\x00)\x00\x00\x00\x00\x00\x00\x00*\x00\x00\x00\x00\x00\x00\x00+\x00\x00\x00\x00\x00\x00\x00,\x00\x00\x00\x00\x00\x00\x00-\x00\x00\x00\x00\x00\x00\x00.\x00\x00\x00\x00\x00\x00\x00/\x00\x00\x00\x00\x00\x00\x00'
p252
tp253
bsg246
g114
sasstp254
bsb.